******************************************************************************
                  TI ARM Linker PC v16.9.7                     
******************************************************************************
>> Linked Tue Mar 20 13:52:30 2018

OUTPUT FILE NAME:   <Sensor_CC1310_Node_1.out>
ENTRY POINT SYMBOL: "ResetISR"  address: 00007b89


MEMORY CONFIGURATION

         name            origin    length      used     unused   attr    fill
----------------------  --------  ---------  --------  --------  ----  --------
  FLASH                 00000000   00020000  0000e58e  00011a72  R  X
  SRAM                  20000000   00005000  000035a9  00001a57  RW X


SEGMENT ALLOCATION MAP

run origin  load origin   length   init length attrs members
----------  ----------- ---------- ----------- ----- -------
00000000    00000000    0000e540   0000e540    r-x
  00000000    00000000    0000003c   0000003c    r-- .resetVecs
  0000003c    0000003c    00000fc4   00000fc4    r-x .text.1
  00001000    00001000    0000003c   0000003c    r-- .const:ti_sysbios_knl_Task_Object__PARAMS__C
  0000103c    0000103c    00000034   00000034    r-- .const:ti_sysbios_knl_Mailbox_Object__PARAMS__C
  00001070    00001070    00000030   00000030    r-- .const:ti_sysbios_family_arm_m3_Hwi_Object__PARAMS__C
  000010a0    000010a0    0000002c   0000002c    r-- .const:ti_sysbios_hal_Hwi_Object__PARAMS__C
  000010cc    000010cc    00000028   00000028    r-- .const:ti_sysbios_heaps_HeapMem_Module__FXNS__C
  000010f4    000010f4    00000028   00000028    r-- .const:ti_sysbios_knl_Swi_Object__PARAMS__C
  0000111c    0000111c    00000024   00000024    r-- .const:ti_sysbios_gates_GateHwi_Module__FXNS__C
  00001140    00001140    00000024   00000024    r-- .const:ti_sysbios_gates_GateMutex_Module__FXNS__C
  00001164    00001164    00000024   00000024    r-- .const:ti_sysbios_heaps_HeapMem_Object__PARAMS__C
  00001188    00001188    00000024   00000024    r-- .const:ti_sysbios_knl_Clock_Object__PARAMS__C
  000011ac    000011ac    00000024   00000024    r-- .const:ti_sysbios_knl_Semaphore_Object__PARAMS__C
  000011d0    000011d0    00000020   00000020    r-- .const:ti_sysbios_family_arm_m3_Hwi_Object__DESC__C
  000011f0    000011f0    00000020   00000020    r-- .const:ti_sysbios_gates_GateHwi_Object__DESC__C
  00001210    00001210    00000020   00000020    r-- .const:ti_sysbios_gates_GateMutex_Object__DESC__C
  00001230    00001230    00000020   00000020    r-- .const:ti_sysbios_hal_Hwi_Object__DESC__C
  00001250    00001250    00000020   00000020    r-- .const:ti_sysbios_heaps_HeapMem_Object__DESC__C
  00001270    00001270    00000020   00000020    r-- .const:ti_sysbios_knl_Clock_Object__DESC__C
  00001290    00001290    00000020   00000020    r-- .const:ti_sysbios_knl_Mailbox_Object__DESC__C
  000012b0    000012b0    00000020   00000020    r-- .const:ti_sysbios_knl_Queue_Object__DESC__C
  000012d0    000012d0    00000020   00000020    r-- .const:ti_sysbios_knl_Semaphore_Object__DESC__C
  000012f0    000012f0    00000020   00000020    r-- .const:ti_sysbios_knl_Swi_Object__DESC__C
  00001310    00001310    00000020   00000020    r-- .const:ti_sysbios_knl_Task_Object__DESC__C
  00001330    00001330    00000018   00000018    r-- .const:ti_sysbios_gates_GateHwi_Object__PARAMS__C
  00001348    00001348    00000018   00000018    r-- .const:ti_sysbios_gates_GateMutex_Object__PARAMS__C
  00001360    00001360    00000018   00000018    r-- .const:ti_sysbios_knl_Queue_Object__PARAMS__C
  00001378    00001378    00000008   00000008    r-- .const:ti_sysbios_knl_Idle_funcList__C
  00001380    00001380    00000004   00000004    r-x .text.2
  00001384    00001384    00000004   00000004    r-- .const:ti_sysbios_family_arm_cc26xx_Timer_startupNeeded__C
  00001388    00001388    00000004   00000004    r-- .const:ti_sysbios_family_arm_m3_Hwi_E_alreadyDefined__C
  0000138c    0000138c    00000004   00000004    r-- .const:ti_sysbios_family_arm_m3_Hwi_E_hwiLimitExceeded__C
  00001390    00001390    00000004   00000004    r-- .const:ti_sysbios_family_arm_m3_Hwi_NUM_INTERRUPTS__C
  00001394    00001394    00000004   00000004    r-- .const:ti_sysbios_family_arm_m3_Hwi_Object__count__C
  00001398    00001398    00000004   00000004    r-- .const:ti_sysbios_family_arm_m3_Hwi_Object__table__C
  0000139c    0000139c    00000004   00000004    r-- .const:ti_sysbios_family_arm_m3_Hwi_ccr__C
  000013a0    000013a0    00000004   00000004    r-- .const:ti_sysbios_family_arm_m3_Hwi_excHandlerFunc__C
  000013a4    000013a4    00000004   00000004    r-- .const:ti_sysbios_family_arm_m3_Hwi_nullIsrFunc__C
  000013a8    000013a8    00000004   00000004    r-- .const:ti_sysbios_family_arm_m3_Hwi_numSparseInterrupts__C
  000013ac    000013ac    00000004   00000004    r-- .const:ti_sysbios_family_arm_m3_Hwi_priGroup__C
  000013b0    000013b0    00000004   00000004    r-- .const:ti_sysbios_family_arm_m3_TaskSupport_stackAlignment__C
  000013b4    000013b4    00000004   00000004    r-- .const:ti_sysbios_heaps_HeapMem_E_memory__C
  000013b8    000013b8    00000004   00000004    r-- .const:ti_sysbios_heaps_HeapMem_Module__gateObj__C
  000013bc    000013bc    00000004   00000004    r-- .const:ti_sysbios_heaps_HeapMem_Object__count__C
  000013c0    000013c0    00000004   00000004    r-- .const:ti_sysbios_heaps_HeapMem_Object__table__C
  000013c4    000013c4    00000004   00000004    r-- .const:ti_sysbios_heaps_HeapMem_reqAlign__C
  000013c8    000013c8    00000004   00000004    r-- .const:ti_sysbios_knl_Clock_serviceMargin__C
  000013cc    000013cc    00000004   00000004    r-- .const:ti_sysbios_knl_Mailbox_Object__count__C
  000013d0    000013d0    00000004   00000004    r-- .const:ti_sysbios_knl_Mailbox_Object__table__C
  000013d4    000013d4    00000004   00000004    r-- .const:ti_sysbios_knl_Mailbox_maxTypeAlign__C
  000013d8    000013d8    00000004   00000004    r-- .const:ti_sysbios_knl_Queue_Object__count__C
  000013dc    000013dc    00000004   00000004    r-- .const:ti_sysbios_knl_Queue_Object__table__C
  000013e0    000013e0    00000004   00000004    r-- .const:ti_sysbios_knl_Swi_Object__count__C
  000013e4    000013e4    00000004   00000004    r-- .const:ti_sysbios_knl_Swi_Object__table__C
  000013e8    000013e8    00000004   00000004    r-- .const:ti_sysbios_knl_Swi_numPriorities__C
  000013ec    000013ec    00000004   00000004    r-- .const:ti_sysbios_knl_Task_Object__count__C
  000013f0    000013f0    00000004   00000004    r-- .const:ti_sysbios_knl_Task_Object__table__C
  000013f4    000013f4    00000004   00000004    r-- .const:ti_sysbios_knl_Task_allBlockedFunc__C
  000013f8    000013f8    00000004   00000004    r-- .const:ti_sysbios_knl_Task_defaultStackHeap__C
  000013fc    000013fc    00000004   00000004    r-- .const:ti_sysbios_knl_Task_defaultStackSize__C
  00001400    00001400    00000004   00000004    r-- .const:ti_sysbios_knl_Task_numConstructedTasks__C
  00001404    00001404    00000002   00000002    r-x .text.3
  00001406    00001406    00000002   00000002    r-- .const:ti_sysbios_family_arm_cc26xx_Timer_Module__id__C
  00001408    00001408    00000002   00000002    r-- .const:ti_sysbios_family_arm_cc26xx_TimestampProvider_useClockTimer__C
  0000140a    0000140a    00000002   00000002    r-- .const:ti_sysbios_family_arm_m3_Hwi_Module__id__C
  0000140c    0000140c    00000002   00000002    r-- .const:ti_sysbios_gates_GateHwi_Module__id__C
  0000140e    0000140e    00000002   00000002    r-- .const:ti_sysbios_gates_GateMutex_Module__id__C
  00001410    00001410    00000002   00000002    r-- .const:ti_sysbios_heaps_HeapMem_Module__id__C
  00001412    00001412    00000002   00000002    r-- .const:ti_sysbios_knl_Task_initStackFlag__C
  00001414    00001414    00000001   00000001    r-- .const:ti_sysbios_knl_Clock_tickMode__C
  00001418    00001418    00000008   00000008    r-- .const:xdc_runtime_Startup_firstFxns__C
  00001420    00001420    00000008   00000008    r-- .const:xdc_runtime_Startup_lastFxns__C
  00001428    00001428    00000004   00000004    r-- .const:xdc_runtime_Assert_E_assertFailed__C
  0000142c    0000142c    00000004   00000004    r-- .const:xdc_runtime_Error_E_memory__C
  00001430    00001430    00000004   00000004    r-- .const:xdc_runtime_Error_policyFxn__C
  00001434    00001434    00000004   00000004    r-- .const:xdc_runtime_IGateProvider_Interface__BASE__C
  00001438    00001438    00000004   00000004    r-- .const:xdc_runtime_IHeap_Interface__BASE__C
  0000143c    0000143c    00000004   00000004    r-- .const:xdc_runtime_IModule_Interface__BASE__C
  00001440    00001440    00000004   00000004    r-- .const:xdc_runtime_Main_Module__diagsEnabled__C
  00001444    00001444    00000004   00000004    r-- .const:xdc_runtime_Main_Module__diagsIncluded__C
  00001448    00001448    00000004   00000004    r-- .const:xdc_runtime_Main_Module__diagsMask__C
  0000144c    0000144c    00000004   00000004    r-- .const:xdc_runtime_Memory_defaultHeapInstance__C
  00001450    00001450    00000004   00000004    r-- .const:xdc_runtime_Startup_execImpl__C
  00001454    00001454    00000004   00000004    r-- .const:xdc_runtime_Startup_maxPasses__C
  00001458    00001458    00000004   00000004    r-- .const:xdc_runtime_Startup_sfxnRts__C
  0000145c    0000145c    00000004   00000004    r-- .const:xdc_runtime_Startup_sfxnTab__C
  00001460    00001460    00000004   00000004    r-- .const:xdc_runtime_Startup_startModsFxn__C
  00001464    00001464    00000004   00000004    r-- .const:xdc_runtime_SysCallback_abortFxn__C
  00001468    00001468    00000004   00000004    r-- .const:xdc_runtime_SysCallback_exitFxn__C
  0000146c    0000146c    00000004   00000004    r-- .const:xdc_runtime_System_abortFxn__C
  00001470    00001470    00000004   00000004    r-- .const:xdc_runtime_System_exitFxn__C
  00001474    00001474    00000004   00000004    r-- .const:xdc_runtime_System_maxAtexitHandlers__C
  00001478    00001478    00000004   00000004    r-- .const:xdc_runtime_Text_charTab__C
  0000147c    0000147c    00000004   00000004    r-- .const:xdc_runtime_Text_nameEmpty__C
  00001480    00001480    00000004   00000004    r-- .const:xdc_runtime_Text_nameStatic__C
  00001484    00001484    00000004   00000004    r-- .const:xdc_runtime_Text_nameUnknown__C
  00001488    00001488    00000002   00000002    r-- .const:xdc_runtime_Main_Module__id__C
  0000148a    0000148a    00000002   00000002    r-- .const:xdc_runtime_Memory_Module__id__C
  0000148c    0000148c    00000002   00000002    r-- .const:xdc_runtime_Text_charCnt__C
  0000148e    0000148e    00000002   00000002    r-- .const:xdc_runtime_Text_isLoaded__C
  00001490    00001490    00000001   00000001    r-- .const:xdc_runtime_Error_policy__C
  00001494    00001494    00000004   00000004    r-- .const:ti_sysbios_rom_ROM_AONRTCChannelEnable
  00001498    00001498    00000004   00000004    r-- .const:ti_sysbios_rom_ROM_AONRTCCompareValueSet
  0000149c    0000149c    00000004   00000004    r-- .const:ti_sysbios_rom_ROM_AONRTCCurrentCompareValueGet
  000014a0    000014a0    00000004   00000004    r-- .const:ti_sysbios_rom_ROM_AONRTCEventClear
  000014a4    000014a4    00000004   00000004    r-- .const:ti_sysbios_rom_ROM_ti_sysbios_family_arm_cc26xx_Timer_getCount64__E
  000014a8    000014a8    00000004   00000004    r-- .const:ti_sysbios_rom_ROM_ti_sysbios_family_arm_cc26xx_Timer_getCurrentTick__E
  000014ac    000014ac    00000004   00000004    r-- .const:ti_sysbios_rom_ROM_ti_sysbios_family_arm_cc26xx_Timer_getMaxTicks__E
  000014b0    000014b0    00000004   00000004    r-- .const:ti_sysbios_rom_ROM_ti_sysbios_family_arm_cc26xx_Timer_initDevice__I
  000014b4    000014b4    00000004   00000004    r-- .const:ti_sysbios_rom_ROM_ti_sysbios_family_arm_cc26xx_Timer_setNextTick__E
  000014b8    000014b8    00000004   00000004    r-- .const:ti_sysbios_rom_ROM_ti_sysbios_family_arm_cc26xx_Timer_setThreshold__I
  000014bc    000014bc    00000004   00000004    r-- .const:ti_sysbios_rom_ROM_ti_sysbios_family_arm_cc26xx_Timer_start__E
  000014c0    000014c0    00000004   00000004    r-- .const:ti_sysbios_rom_ROM_ti_sysbios_family_arm_cc26xx_TimestampProvider_get32__E
  000014c4    000014c4    00000004   00000004    r-- .const:ti_sysbios_rom_ROM_xdc_runtime_Startup_getState__I
  000014c8    000014c8    00000004   00000004    r-- .const:ti_sysbios_rom_ROM_xdc_runtime_System_SupportProxy_abort__E
  000014cc    000014cc    00000004   00000004    r-- .const:ti_sysbios_rom_ROM_xdc_runtime_System_SupportProxy_exit__E
  000014d0    000014d0    00000004   00000004    r-- .const:ti_sysbios_gates_GateMutex_Instance_State_sem__O
  000014d4    000014d4    00000004   00000004    r-- .const:ti_sysbios_knl_Clock_Module_State_clockQ__O
  000014d8    000014d8    00000004   00000004    r-- .const:ti_sysbios_knl_Mailbox_Instance_State_dataQue__O
  000014dc    000014dc    00000004   00000004    r-- .const:ti_sysbios_knl_Mailbox_Instance_State_dataSem__O
  000014e0    000014e0    00000004   00000004    r-- .const:ti_sysbios_knl_Mailbox_Instance_State_freeQue__O
  000014e4    000014e4    00000004   00000004    r-- .const:ti_sysbios_knl_Mailbox_Instance_State_freeSem__O
  000014e8    000014e8    00000004   00000004    r-- .const:ti_sysbios_knl_Semaphore_Instance_State_pendQ__O
  000014ec    000014ec    00000004   00000004    r-- .const:ti_sysbios_knl_Task_Module_State_inactiveQ__O
  000014f0    000014f0    000083dc   000083dc    r-x .text.4
  000098cc    000098cc    00004818   00004818    r-- .const
  0000e0e8    0000e0e8    00000458   00000458    r-- .cinit
0001ffa8    0001ffa8    00000058   00000058    r--
  0001ffa8    0001ffa8    00000058   00000058    r-- .ccfg
20000100    20000100    00001779   00000000    rw-
  20000100    20000100    00000044   00000000    rw- .data:ti_sysbios_knl_Task_Module__state__V
  20000144    20000144    00000034   00000000    rw- .data:ti_sysbios_family_arm_m3_Hwi_Module__state__V
  20000178    20000178    0000002c   00000000    rw- .data:ti_sysbios_knl_Clock_Module__state__V
  200001a4    200001a4    00000024   00000000    rw- .data:ti_sysbios_BIOS_Module__state__V
  200001c8    200001c8    0000001c   00000000    rw- .data:ti_sysbios_knl_Swi_Module__state__V
  200001e4    200001e4    00000008   00000000    rw- .data:ti_sysbios_family_arm_cc26xx_Timer_Module__state__V
  200001ec    200001ec    00000004   00000000    rw- .data:ti_sysbios_family_arm_cc26xx_TimestampProvider_Module__state__V
  200001f0    200001f0    00000008   00000000    rw- .data:xdc_runtime_Startup_Module__state__V
  200001f8    200001f8    00000008   00000000    rw- .data:xdc_runtime_System_Module__state__V
  20000200    20000200    00000004   00000000    rw- .data:xdc_runtime_Memory_Module__state__V
  20000208    20000208    00001671   00000000    rw- .bss
20001880    20001880    00001000   00000000    r--
  20001880    20001880    00001000   00000000    r-- .priheap
20002880    20002880    0000096c   00000000    rw-
  20002880    20002880    0000096c   00000000    rw- .data
20004c00    20004c00    00000400   00000000    rw-
  20004c00    20004c00    00000400   00000000    rw- .stack


SECTION ALLOCATION MAP

 output                                  attributes/
section   page    origin      length       input sections
--------  ----  ----------  ----------   ----------------
.resetVecs 
*          0    00000000    0000003c     
                  00000000    0000003c     release_pem3.oem3 (.resetVecs)

.binit     0    00000000    00000000     

.text.1    0    0000003c    00000fc4     
                  0000003c    000003f0     EasyLink.obj (.text:EasyLink_configure)
                  0000042c    00000008     (.tramp.ti_sysbios_knl_Semaphore_post__E.1)
                  00000434    00000008     (.tramp.ti_sysbios_knl_Semaphore_create.1)
                  0000043c    000003f0     rf_multiMode_cc13x0.aem3 : RFCC26XX_multiMode.oem3 (.text:fsmActiveState)
                  0000082c    00000008     (.tramp.ti_sysbios_family_arm_m3_Hwi_restoreFxn__E.1)
                  00000834    0000033c     rom_sysbios.aem3 : rom_sysbios.obj (.text:xdc_runtime_System_doPrint__I)
                  00000b70    0000030c     drivers_cc13x0.aem3 : PowerCC26XX_calibrateRCOSC.oem3 (.text:PowerCC26XX_auxISR)
                  00000e7c    0000017c     EasyLink.obj (.text:EasyLink_transmit)
                  00000ff8    00000008     (.tramp.ti_sysbios_knl_Semaphore_pend__E.1)

.const:ti_sysbios_knl_Task_Object__PARAMS__C 
*          0    00001000    0000003c     
                  00001000    0000003c     release_pem3.oem3 (.const:ti_sysbios_knl_Task_Object__PARAMS__C)

.const:ti_sysbios_knl_Mailbox_Object__PARAMS__C 
*          0    0000103c    00000034     
                  0000103c    00000034     release_pem3.oem3 (.const:ti_sysbios_knl_Mailbox_Object__PARAMS__C)

.const:ti_sysbios_family_arm_m3_Hwi_Object__PARAMS__C 
*          0    00001070    00000030     
                  00001070    00000030     release_pem3.oem3 (.const:ti_sysbios_family_arm_m3_Hwi_Object__PARAMS__C)

.const:ti_sysbios_hal_Hwi_Object__PARAMS__C 
*          0    000010a0    0000002c     
                  000010a0    0000002c     release_pem3.oem3 (.const:ti_sysbios_hal_Hwi_Object__PARAMS__C)

.const:ti_sysbios_heaps_HeapMem_Module__FXNS__C 
*          0    000010cc    00000028     
                  000010cc    00000028     release_pem3.oem3 (.const:ti_sysbios_heaps_HeapMem_Module__FXNS__C)

.const:ti_sysbios_knl_Swi_Object__PARAMS__C 
*          0    000010f4    00000028     
                  000010f4    00000028     release_pem3.oem3 (.const:ti_sysbios_knl_Swi_Object__PARAMS__C)

.const:ti_sysbios_gates_GateHwi_Module__FXNS__C 
*          0    0000111c    00000024     
                  0000111c    00000024     release_pem3.oem3 (.const:ti_sysbios_gates_GateHwi_Module__FXNS__C)

.const:ti_sysbios_gates_GateMutex_Module__FXNS__C 
*          0    00001140    00000024     
                  00001140    00000024     release_pem3.oem3 (.const:ti_sysbios_gates_GateMutex_Module__FXNS__C)

.const:ti_sysbios_heaps_HeapMem_Object__PARAMS__C 
*          0    00001164    00000024     
                  00001164    00000024     release_pem3.oem3 (.const:ti_sysbios_heaps_HeapMem_Object__PARAMS__C)

.const:ti_sysbios_knl_Clock_Object__PARAMS__C 
*          0    00001188    00000024     
                  00001188    00000024     release_pem3.oem3 (.const:ti_sysbios_knl_Clock_Object__PARAMS__C)

.const:ti_sysbios_knl_Semaphore_Object__PARAMS__C 
*          0    000011ac    00000024     
                  000011ac    00000024     release_pem3.oem3 (.const:ti_sysbios_knl_Semaphore_Object__PARAMS__C)

.const:ti_sysbios_family_arm_m3_Hwi_Object__DESC__C 
*          0    000011d0    00000020     
                  000011d0    00000020     release_pem3.oem3 (.const:ti_sysbios_family_arm_m3_Hwi_Object__DESC__C)

.const:ti_sysbios_gates_GateHwi_Object__DESC__C 
*          0    000011f0    00000020     
                  000011f0    00000020     release_pem3.oem3 (.const:ti_sysbios_gates_GateHwi_Object__DESC__C)

.const:ti_sysbios_gates_GateMutex_Object__DESC__C 
*          0    00001210    00000020     
                  00001210    00000020     release_pem3.oem3 (.const:ti_sysbios_gates_GateMutex_Object__DESC__C)

.const:ti_sysbios_hal_Hwi_Object__DESC__C 
*          0    00001230    00000020     
                  00001230    00000020     release_pem3.oem3 (.const:ti_sysbios_hal_Hwi_Object__DESC__C)

.const:ti_sysbios_heaps_HeapMem_Object__DESC__C 
*          0    00001250    00000020     
                  00001250    00000020     release_pem3.oem3 (.const:ti_sysbios_heaps_HeapMem_Object__DESC__C)

.const:ti_sysbios_knl_Clock_Object__DESC__C 
*          0    00001270    00000020     
                  00001270    00000020     release_pem3.oem3 (.const:ti_sysbios_knl_Clock_Object__DESC__C)

.const:ti_sysbios_knl_Mailbox_Object__DESC__C 
*          0    00001290    00000020     
                  00001290    00000020     release_pem3.oem3 (.const:ti_sysbios_knl_Mailbox_Object__DESC__C)

.const:ti_sysbios_knl_Queue_Object__DESC__C 
*          0    000012b0    00000020     
                  000012b0    00000020     release_pem3.oem3 (.const:ti_sysbios_knl_Queue_Object__DESC__C)

.const:ti_sysbios_knl_Semaphore_Object__DESC__C 
*          0    000012d0    00000020     
                  000012d0    00000020     release_pem3.oem3 (.const:ti_sysbios_knl_Semaphore_Object__DESC__C)

.const:ti_sysbios_knl_Swi_Object__DESC__C 
*          0    000012f0    00000020     
                  000012f0    00000020     release_pem3.oem3 (.const:ti_sysbios_knl_Swi_Object__DESC__C)

.const:ti_sysbios_knl_Task_Object__DESC__C 
*          0    00001310    00000020     
                  00001310    00000020     release_pem3.oem3 (.const:ti_sysbios_knl_Task_Object__DESC__C)

.const:ti_sysbios_gates_GateHwi_Object__PARAMS__C 
*          0    00001330    00000018     
                  00001330    00000018     release_pem3.oem3 (.const:ti_sysbios_gates_GateHwi_Object__PARAMS__C)

.const:ti_sysbios_gates_GateMutex_Object__PARAMS__C 
*          0    00001348    00000018     
                  00001348    00000018     release_pem3.oem3 (.const:ti_sysbios_gates_GateMutex_Object__PARAMS__C)

.const:ti_sysbios_knl_Queue_Object__PARAMS__C 
*          0    00001360    00000018     
                  00001360    00000018     release_pem3.oem3 (.const:ti_sysbios_knl_Queue_Object__PARAMS__C)

.const:ti_sysbios_knl_Idle_funcList__C 
*          0    00001378    00000008     
                  00001378    00000008     release_pem3.oem3 (.const:ti_sysbios_knl_Idle_funcList__C)

.text.2    0    00001380    00000004     
                  00001380    00000004     dpl_cc13x0.aem3 : PowerCC26XX_tirtos.oem3 (.text:CPUwfi)

.const:ti_sysbios_family_arm_cc26xx_Timer_startupNeeded__C 
*          0    00001384    00000004     
                  00001384    00000004     release_pem3.oem3 (.const:ti_sysbios_family_arm_cc26xx_Timer_startupNeeded__C)

.const:ti_sysbios_family_arm_m3_Hwi_E_alreadyDefined__C 
*          0    00001388    00000004     
                  00001388    00000004     release_pem3.oem3 (.const:ti_sysbios_family_arm_m3_Hwi_E_alreadyDefined__C)

.const:ti_sysbios_family_arm_m3_Hwi_E_hwiLimitExceeded__C 
*          0    0000138c    00000004     
                  0000138c    00000004     release_pem3.oem3 (.const:ti_sysbios_family_arm_m3_Hwi_E_hwiLimitExceeded__C)

.const:ti_sysbios_family_arm_m3_Hwi_NUM_INTERRUPTS__C 
*          0    00001390    00000004     
                  00001390    00000004     release_pem3.oem3 (.const:ti_sysbios_family_arm_m3_Hwi_NUM_INTERRUPTS__C)

.const:ti_sysbios_family_arm_m3_Hwi_Object__count__C 
*          0    00001394    00000004     
                  00001394    00000004     release_pem3.oem3 (.const:ti_sysbios_family_arm_m3_Hwi_Object__count__C)

.const:ti_sysbios_family_arm_m3_Hwi_Object__table__C 
*          0    00001398    00000004     
                  00001398    00000004     release_pem3.oem3 (.const:ti_sysbios_family_arm_m3_Hwi_Object__table__C)

.const:ti_sysbios_family_arm_m3_Hwi_ccr__C 
*          0    0000139c    00000004     
                  0000139c    00000004     release_pem3.oem3 (.const:ti_sysbios_family_arm_m3_Hwi_ccr__C)

.const:ti_sysbios_family_arm_m3_Hwi_excHandlerFunc__C 
*          0    000013a0    00000004     
                  000013a0    00000004     release_pem3.oem3 (.const:ti_sysbios_family_arm_m3_Hwi_excHandlerFunc__C)

.const:ti_sysbios_family_arm_m3_Hwi_nullIsrFunc__C 
*          0    000013a4    00000004     
                  000013a4    00000004     release_pem3.oem3 (.const:ti_sysbios_family_arm_m3_Hwi_nullIsrFunc__C)

.const:ti_sysbios_family_arm_m3_Hwi_numSparseInterrupts__C 
*          0    000013a8    00000004     
                  000013a8    00000004     release_pem3.oem3 (.const:ti_sysbios_family_arm_m3_Hwi_numSparseInterrupts__C)

.const:ti_sysbios_family_arm_m3_Hwi_priGroup__C 
*          0    000013ac    00000004     
                  000013ac    00000004     release_pem3.oem3 (.const:ti_sysbios_family_arm_m3_Hwi_priGroup__C)

.const:ti_sysbios_family_arm_m3_TaskSupport_stackAlignment__C 
*          0    000013b0    00000004     
                  000013b0    00000004     release_pem3.oem3 (.const:ti_sysbios_family_arm_m3_TaskSupport_stackAlignment__C)

.const:ti_sysbios_heaps_HeapMem_E_memory__C 
*          0    000013b4    00000004     
                  000013b4    00000004     release_pem3.oem3 (.const:ti_sysbios_heaps_HeapMem_E_memory__C)

.const:ti_sysbios_heaps_HeapMem_Module__gateObj__C 
*          0    000013b8    00000004     
                  000013b8    00000004     release_pem3.oem3 (.const:ti_sysbios_heaps_HeapMem_Module__gateObj__C)

.const:ti_sysbios_heaps_HeapMem_Object__count__C 
*          0    000013bc    00000004     
                  000013bc    00000004     release_pem3.oem3 (.const:ti_sysbios_heaps_HeapMem_Object__count__C)

.const:ti_sysbios_heaps_HeapMem_Object__table__C 
*          0    000013c0    00000004     
                  000013c0    00000004     release_pem3.oem3 (.const:ti_sysbios_heaps_HeapMem_Object__table__C)

.const:ti_sysbios_heaps_HeapMem_reqAlign__C 
*          0    000013c4    00000004     
                  000013c4    00000004     release_pem3.oem3 (.const:ti_sysbios_heaps_HeapMem_reqAlign__C)

.const:ti_sysbios_knl_Clock_serviceMargin__C 
*          0    000013c8    00000004     
                  000013c8    00000004     release_pem3.oem3 (.const:ti_sysbios_knl_Clock_serviceMargin__C)

.const:ti_sysbios_knl_Mailbox_Object__count__C 
*          0    000013cc    00000004     
                  000013cc    00000004     release_pem3.oem3 (.const:ti_sysbios_knl_Mailbox_Object__count__C)

.const:ti_sysbios_knl_Mailbox_Object__table__C 
*          0    000013d0    00000004     
                  000013d0    00000004     release_pem3.oem3 (.const:ti_sysbios_knl_Mailbox_Object__table__C)

.const:ti_sysbios_knl_Mailbox_maxTypeAlign__C 
*          0    000013d4    00000004     
                  000013d4    00000004     release_pem3.oem3 (.const:ti_sysbios_knl_Mailbox_maxTypeAlign__C)

.const:ti_sysbios_knl_Queue_Object__count__C 
*          0    000013d8    00000004     
                  000013d8    00000004     release_pem3.oem3 (.const:ti_sysbios_knl_Queue_Object__count__C)

.const:ti_sysbios_knl_Queue_Object__table__C 
*          0    000013dc    00000004     
                  000013dc    00000004     release_pem3.oem3 (.const:ti_sysbios_knl_Queue_Object__table__C)

.const:ti_sysbios_knl_Swi_Object__count__C 
*          0    000013e0    00000004     
                  000013e0    00000004     release_pem3.oem3 (.const:ti_sysbios_knl_Swi_Object__count__C)

.const:ti_sysbios_knl_Swi_Object__table__C 
*          0    000013e4    00000004     
                  000013e4    00000004     release_pem3.oem3 (.const:ti_sysbios_knl_Swi_Object__table__C)

.const:ti_sysbios_knl_Swi_numPriorities__C 
*          0    000013e8    00000004     
                  000013e8    00000004     release_pem3.oem3 (.const:ti_sysbios_knl_Swi_numPriorities__C)

.const:ti_sysbios_knl_Task_Object__count__C 
*          0    000013ec    00000004     
                  000013ec    00000004     release_pem3.oem3 (.const:ti_sysbios_knl_Task_Object__count__C)

.const:ti_sysbios_knl_Task_Object__table__C 
*          0    000013f0    00000004     
                  000013f0    00000004     release_pem3.oem3 (.const:ti_sysbios_knl_Task_Object__table__C)

.const:ti_sysbios_knl_Task_allBlockedFunc__C 
*          0    000013f4    00000004     
                  000013f4    00000004     release_pem3.oem3 (.const:ti_sysbios_knl_Task_allBlockedFunc__C)

.const:ti_sysbios_knl_Task_defaultStackHeap__C 
*          0    000013f8    00000004     
                  000013f8    00000004     release_pem3.oem3 (.const:ti_sysbios_knl_Task_defaultStackHeap__C)

.const:ti_sysbios_knl_Task_defaultStackSize__C 
*          0    000013fc    00000004     
                  000013fc    00000004     release_pem3.oem3 (.const:ti_sysbios_knl_Task_defaultStackSize__C)

.const:ti_sysbios_knl_Task_numConstructedTasks__C 
*          0    00001400    00000004     
                  00001400    00000004     release_pem3.oem3 (.const:ti_sysbios_knl_Task_numConstructedTasks__C)

.text.3    0    00001404    00000002     
                  00001404    00000002     display.aem3 : DisplayUart.oem3 (.text:DisplayUartMin_clear)

.const:ti_sysbios_family_arm_cc26xx_Timer_Module__id__C 
*          0    00001406    00000002     
                  00001406    00000002     release_pem3.oem3 (.const:ti_sysbios_family_arm_cc26xx_Timer_Module__id__C)

.const:ti_sysbios_family_arm_cc26xx_TimestampProvider_useClockTimer__C 
*          0    00001408    00000002     
                  00001408    00000002     release_pem3.oem3 (.const:ti_sysbios_family_arm_cc26xx_TimestampProvider_useClockTimer__C)

.const:ti_sysbios_family_arm_m3_Hwi_Module__id__C 
*          0    0000140a    00000002     
                  0000140a    00000002     release_pem3.oem3 (.const:ti_sysbios_family_arm_m3_Hwi_Module__id__C)

.const:ti_sysbios_gates_GateHwi_Module__id__C 
*          0    0000140c    00000002     
                  0000140c    00000002     release_pem3.oem3 (.const:ti_sysbios_gates_GateHwi_Module__id__C)

.const:ti_sysbios_gates_GateMutex_Module__id__C 
*          0    0000140e    00000002     
                  0000140e    00000002     release_pem3.oem3 (.const:ti_sysbios_gates_GateMutex_Module__id__C)

.const:ti_sysbios_heaps_HeapMem_Module__id__C 
*          0    00001410    00000002     
                  00001410    00000002     release_pem3.oem3 (.const:ti_sysbios_heaps_HeapMem_Module__id__C)

.const:ti_sysbios_knl_Task_initStackFlag__C 
*          0    00001412    00000002     
                  00001412    00000002     release_pem3.oem3 (.const:ti_sysbios_knl_Task_initStackFlag__C)

.const:ti_sysbios_knl_Clock_tickMode__C 
*          0    00001414    00000001     
                  00001414    00000001     release_pem3.oem3 (.const:ti_sysbios_knl_Clock_tickMode__C)

.const:xdc_runtime_Startup_firstFxns__C 
*          0    00001418    00000008     
                  00001418    00000008     release_pem3.oem3 (.const:xdc_runtime_Startup_firstFxns__C)

.const:xdc_runtime_Startup_lastFxns__C 
*          0    00001420    00000008     
                  00001420    00000008     release_pem3.oem3 (.const:xdc_runtime_Startup_lastFxns__C)

.const:xdc_runtime_Assert_E_assertFailed__C 
*          0    00001428    00000004     
                  00001428    00000004     release_pem3.oem3 (.const:xdc_runtime_Assert_E_assertFailed__C)

.const:xdc_runtime_Error_E_memory__C 
*          0    0000142c    00000004     
                  0000142c    00000004     release_pem3.oem3 (.const:xdc_runtime_Error_E_memory__C)

.const:xdc_runtime_Error_policyFxn__C 
*          0    00001430    00000004     
                  00001430    00000004     release_pem3.oem3 (.const:xdc_runtime_Error_policyFxn__C)

.const:xdc_runtime_IGateProvider_Interface__BASE__C 
*          0    00001434    00000004     
                  00001434    00000004     release_pem3.oem3 (.const:xdc_runtime_IGateProvider_Interface__BASE__C)

.const:xdc_runtime_IHeap_Interface__BASE__C 
*          0    00001438    00000004     
                  00001438    00000004     release_pem3.oem3 (.const:xdc_runtime_IHeap_Interface__BASE__C)

.const:xdc_runtime_IModule_Interface__BASE__C 
*          0    0000143c    00000004     
                  0000143c    00000004     release_pem3.oem3 (.const:xdc_runtime_IModule_Interface__BASE__C)

.const:xdc_runtime_Main_Module__diagsEnabled__C 
*          0    00001440    00000004     
                  00001440    00000004     release_pem3.oem3 (.const:xdc_runtime_Main_Module__diagsEnabled__C)

.const:xdc_runtime_Main_Module__diagsIncluded__C 
*          0    00001444    00000004     
                  00001444    00000004     release_pem3.oem3 (.const:xdc_runtime_Main_Module__diagsIncluded__C)

.const:xdc_runtime_Main_Module__diagsMask__C 
*          0    00001448    00000004     
                  00001448    00000004     release_pem3.oem3 (.const:xdc_runtime_Main_Module__diagsMask__C)

.const:xdc_runtime_Memory_defaultHeapInstance__C 
*          0    0000144c    00000004     
                  0000144c    00000004     release_pem3.oem3 (.const:xdc_runtime_Memory_defaultHeapInstance__C)

.const:xdc_runtime_Startup_execImpl__C 
*          0    00001450    00000004     
                  00001450    00000004     release_pem3.oem3 (.const:xdc_runtime_Startup_execImpl__C)

.const:xdc_runtime_Startup_maxPasses__C 
*          0    00001454    00000004     
                  00001454    00000004     release_pem3.oem3 (.const:xdc_runtime_Startup_maxPasses__C)

.const:xdc_runtime_Startup_sfxnRts__C 
*          0    00001458    00000004     
                  00001458    00000004     release_pem3.oem3 (.const:xdc_runtime_Startup_sfxnRts__C)

.const:xdc_runtime_Startup_sfxnTab__C 
*          0    0000145c    00000004     
                  0000145c    00000004     release_pem3.oem3 (.const:xdc_runtime_Startup_sfxnTab__C)

.const:xdc_runtime_Startup_startModsFxn__C 
*          0    00001460    00000004     
                  00001460    00000004     release_pem3.oem3 (.const:xdc_runtime_Startup_startModsFxn__C)

.const:xdc_runtime_SysCallback_abortFxn__C 
*          0    00001464    00000004     
                  00001464    00000004     release_pem3.oem3 (.const:xdc_runtime_SysCallback_abortFxn__C)

.const:xdc_runtime_SysCallback_exitFxn__C 
*          0    00001468    00000004     
                  00001468    00000004     release_pem3.oem3 (.const:xdc_runtime_SysCallback_exitFxn__C)

.const:xdc_runtime_System_abortFxn__C 
*          0    0000146c    00000004     
                  0000146c    00000004     release_pem3.oem3 (.const:xdc_runtime_System_abortFxn__C)

.const:xdc_runtime_System_exitFxn__C 
*          0    00001470    00000004     
                  00001470    00000004     release_pem3.oem3 (.const:xdc_runtime_System_exitFxn__C)

.const:xdc_runtime_System_maxAtexitHandlers__C 
*          0    00001474    00000004     
                  00001474    00000004     release_pem3.oem3 (.const:xdc_runtime_System_maxAtexitHandlers__C)

.const:xdc_runtime_Text_charTab__C 
*          0    00001478    00000004     
                  00001478    00000004     release_pem3.oem3 (.const:xdc_runtime_Text_charTab__C)

.const:xdc_runtime_Text_nameEmpty__C 
*          0    0000147c    00000004     
                  0000147c    00000004     release_pem3.oem3 (.const:xdc_runtime_Text_nameEmpty__C)

.const:xdc_runtime_Text_nameStatic__C 
*          0    00001480    00000004     
                  00001480    00000004     release_pem3.oem3 (.const:xdc_runtime_Text_nameStatic__C)

.const:xdc_runtime_Text_nameUnknown__C 
*          0    00001484    00000004     
                  00001484    00000004     release_pem3.oem3 (.const:xdc_runtime_Text_nameUnknown__C)

.const:xdc_runtime_Main_Module__id__C 
*          0    00001488    00000002     
                  00001488    00000002     release_pem3.oem3 (.const:xdc_runtime_Main_Module__id__C)

.const:xdc_runtime_Memory_Module__id__C 
*          0    0000148a    00000002     
                  0000148a    00000002     release_pem3.oem3 (.const:xdc_runtime_Memory_Module__id__C)

.const:xdc_runtime_Text_charCnt__C 
*          0    0000148c    00000002     
                  0000148c    00000002     release_pem3.oem3 (.const:xdc_runtime_Text_charCnt__C)

.const:xdc_runtime_Text_isLoaded__C 
*          0    0000148e    00000002     
                  0000148e    00000002     release_pem3.oem3 (.const:xdc_runtime_Text_isLoaded__C)

.const:xdc_runtime_Error_policy__C 
*          0    00001490    00000001     
                  00001490    00000001     release_pem3.oem3 (.const:xdc_runtime_Error_policy__C)

.const:ti_sysbios_rom_ROM_AONRTCChannelEnable 
*          0    00001494    00000004     
                  00001494    00000004     release_pem3.oem3 (.const:ti_sysbios_rom_ROM_AONRTCChannelEnable)

.const:ti_sysbios_rom_ROM_AONRTCCompareValueSet 
*          0    00001498    00000004     
                  00001498    00000004     release_pem3.oem3 (.const:ti_sysbios_rom_ROM_AONRTCCompareValueSet)

.const:ti_sysbios_rom_ROM_AONRTCCurrentCompareValueGet 
*          0    0000149c    00000004     
                  0000149c    00000004     release_pem3.oem3 (.const:ti_sysbios_rom_ROM_AONRTCCurrentCompareValueGet)

.const:ti_sysbios_rom_ROM_AONRTCEventClear 
*          0    000014a0    00000004     
                  000014a0    00000004     release_pem3.oem3 (.const:ti_sysbios_rom_ROM_AONRTCEventClear)

.const:ti_sysbios_rom_ROM_ti_sysbios_family_arm_cc26xx_Timer_getCount64__E 
*          0    000014a4    00000004     
                  000014a4    00000004     release_pem3.oem3 (.const:ti_sysbios_rom_ROM_ti_sysbios_family_arm_cc26xx_Timer_getCount64__E)

.const:ti_sysbios_rom_ROM_ti_sysbios_family_arm_cc26xx_Timer_getCurrentTick__E 
*          0    000014a8    00000004     
                  000014a8    00000004     release_pem3.oem3 (.const:ti_sysbios_rom_ROM_ti_sysbios_family_arm_cc26xx_Timer_getCurrentTick__E)

.const:ti_sysbios_rom_ROM_ti_sysbios_family_arm_cc26xx_Timer_getMaxTicks__E 
*          0    000014ac    00000004     
                  000014ac    00000004     release_pem3.oem3 (.const:ti_sysbios_rom_ROM_ti_sysbios_family_arm_cc26xx_Timer_getMaxTicks__E)

.const:ti_sysbios_rom_ROM_ti_sysbios_family_arm_cc26xx_Timer_initDevice__I 
*          0    000014b0    00000004     
                  000014b0    00000004     release_pem3.oem3 (.const:ti_sysbios_rom_ROM_ti_sysbios_family_arm_cc26xx_Timer_initDevice__I)

.const:ti_sysbios_rom_ROM_ti_sysbios_family_arm_cc26xx_Timer_setNextTick__E 
*          0    000014b4    00000004     
                  000014b4    00000004     release_pem3.oem3 (.const:ti_sysbios_rom_ROM_ti_sysbios_family_arm_cc26xx_Timer_setNextTick__E)

.const:ti_sysbios_rom_ROM_ti_sysbios_family_arm_cc26xx_Timer_setThreshold__I 
*          0    000014b8    00000004     
                  000014b8    00000004     release_pem3.oem3 (.const:ti_sysbios_rom_ROM_ti_sysbios_family_arm_cc26xx_Timer_setThreshold__I)

.const:ti_sysbios_rom_ROM_ti_sysbios_family_arm_cc26xx_Timer_start__E 
*          0    000014bc    00000004     
                  000014bc    00000004     release_pem3.oem3 (.const:ti_sysbios_rom_ROM_ti_sysbios_family_arm_cc26xx_Timer_start__E)

.const:ti_sysbios_rom_ROM_ti_sysbios_family_arm_cc26xx_TimestampProvider_get32__E 
*          0    000014c0    00000004     
                  000014c0    00000004     release_pem3.oem3 (.const:ti_sysbios_rom_ROM_ti_sysbios_family_arm_cc26xx_TimestampProvider_get32__E)

.const:ti_sysbios_rom_ROM_xdc_runtime_Startup_getState__I 
*          0    000014c4    00000004     
                  000014c4    00000004     release_pem3.oem3 (.const:ti_sysbios_rom_ROM_xdc_runtime_Startup_getState__I)

.const:ti_sysbios_rom_ROM_xdc_runtime_System_SupportProxy_abort__E 
*          0    000014c8    00000004     
                  000014c8    00000004     release_pem3.oem3 (.const:ti_sysbios_rom_ROM_xdc_runtime_System_SupportProxy_abort__E)

.const:ti_sysbios_rom_ROM_xdc_runtime_System_SupportProxy_exit__E 
*          0    000014cc    00000004     
                  000014cc    00000004     release_pem3.oem3 (.const:ti_sysbios_rom_ROM_xdc_runtime_System_SupportProxy_exit__E)

.const:ti_sysbios_gates_GateMutex_Instance_State_sem__O 
*          0    000014d0    00000004     
                  000014d0    00000004     release_pem3.oem3 (.const:ti_sysbios_gates_GateMutex_Instance_State_sem__O)

.const:ti_sysbios_knl_Clock_Module_State_clockQ__O 
*          0    000014d4    00000004     
                  000014d4    00000004     release_pem3.oem3 (.const:ti_sysbios_knl_Clock_Module_State_clockQ__O)

.const:ti_sysbios_knl_Mailbox_Instance_State_dataQue__O 
*          0    000014d8    00000004     
                  000014d8    00000004     release_pem3.oem3 (.const:ti_sysbios_knl_Mailbox_Instance_State_dataQue__O)

.const:ti_sysbios_knl_Mailbox_Instance_State_dataSem__O 
*          0    000014dc    00000004     
                  000014dc    00000004     release_pem3.oem3 (.const:ti_sysbios_knl_Mailbox_Instance_State_dataSem__O)

.const:ti_sysbios_knl_Mailbox_Instance_State_freeQue__O 
*          0    000014e0    00000004     
                  000014e0    00000004     release_pem3.oem3 (.const:ti_sysbios_knl_Mailbox_Instance_State_freeQue__O)

.const:ti_sysbios_knl_Mailbox_Instance_State_freeSem__O 
*          0    000014e4    00000004     
                  000014e4    00000004     release_pem3.oem3 (.const:ti_sysbios_knl_Mailbox_Instance_State_freeSem__O)

.const:ti_sysbios_knl_Semaphore_Instance_State_pendQ__O 
*          0    000014e8    00000004     
                  000014e8    00000004     release_pem3.oem3 (.const:ti_sysbios_knl_Semaphore_Instance_State_pendQ__O)

.const:ti_sysbios_knl_Task_Module_State_inactiveQ__O 
*          0    000014ec    00000004     
                  000014ec    00000004     release_pem3.oem3 (.const:ti_sysbios_knl_Task_Module_State_inactiveQ__O)

.text.4    0    000014f0    000083dc     
                  000014f0    00000228     driverlib.lib : sys_ctrl.obj (.text:NOROM_SysCtrlSetRechargeBeforePowerDown)
                  00001718    00000224     drivers_cc13x0.aem3 : PowerCC26XX.oem3 (.text:Power_sleep)
                  0000193c    00000204     NodeTask.obj (.text:nodeTaskFunction)
                  00001b40    000001fc     rf_multiMode_cc13x0.aem3 : RFCC26XX_multiMode.oem3 (.text:RF_open)
                  00001d3c    000001f4     rtsv7M3_T_le_eabi.lib : ull_div_t2.obj (.text)
                  00001f30    000001bc     drivers_cc13x0.aem3 : PINCC26XX.oem3 (.text:PIN_init)
                  000020ec    000001b8     EasyLink.obj (.text:EasyLink_receiveAsync)
                  000022a4    000001b6     rtsv7M3_T_le_eabi.lib : fd_add_t2.obj (.text)
                  0000245a    00000002     display.aem3 : DisplayUart.oem3 (.text:DisplayUartMin_clearLines)
                  0000245c    000001a0     EasyLink.obj (.text:rxDoneCallback)
                  000025fc    0000019c     rf_multiMode_cc13x0.aem3 : RFCC26XX_multiMode.oem3 (.text:fsmSetupState)
                  00002798    00000194                              : RFCC26XX_multiMode.oem3 (.text:RF_scheduleCmd)
                  0000292c    00000190     drivers_cc13x0.aem3 : PowerCC26XX_calibrateRCOSC.oem3 (.text:PowerCC26XX_doCalibrate)
                  00002abc    00000190     NodeRadioTask.obj (.text:nodeRadioTaskFunction)
                  00002c4c    00000170     rf_multiMode_cc13x0.aem3 : RFCC26XX_multiMode.oem3 (.text:RF_schCmdRunInsertPreempt)
                  00002dbc    00000170     NodeRadioTask.obj (.text:sendDmPacket)
                  00002f2c    0000016c     EasyLink.obj (.text:enableTestMode)
                  00003098    00000168     release_pem3.oem3 (.text:xdc_runtime_System_printfExtend__I)
                  00003200    00000164     drivers_cc13x0.aem3 : UARTCC26XX.oem3 (.text:UARTCC26XX_open)
                  00003364    00000154     rf_multiMode_cc13x0.aem3 : RFCC26XX_multiMode.oem3 (.text:radioOpDoneCb)
                  000034b8    00000150     smartrf_settings_predefined.obj (.text:rf_patch_mce_genook)
                  00003608    00000148     rf_multiMode_cc13x0.aem3 : RFCC26XX_multiMode.oem3 (.text:fsmChangePhyState)
                  00003750    0000013c                              : RFCC26XX_multiMode.oem3 (.text:hwiFxnCpe0Active)
                  0000388c    00000130     driverlib.lib : setup_rom.obj (.text:NOROM_SetupAfterColdResetWakeupFromShutDownCfg3)
                  000039bc    00000128     smartrf_settings.obj (.text:rf_patch_rfe_genfsk)
                  00003ae4    00000128     smartrf_settings_predefined.obj (.text:rf_patch_rfe_genfsk)
                  00003c0c    00000128     smartrf_settings_predefined.obj (.text:rf_patch_rfe_lrm)
                  00003d34    00000128     smartrf_settings_predefined.obj (.text:rf_patch_rfe_sl_longrange)
                  00003e5c    0000011c     drivers_cc13x0.aem3 : UARTCC26XX.oem3 (.text:UARTCC26XX_read)
                  00003f78    00000114                         : PowerCC26XX.oem3 (.text:Power_init)
                  0000408c    00000114     smartrf_settings_predefined.obj (.text:rf_patch_mce_hsp_4mbps)
                  000041a0    00000112     drivers_cc13x0.aem3 : UARTCC26XX.oem3 (.text:UARTCC26XX_hwiIntFxn)
                  000042b2    00000002     display.aem3 : DisplayUart.oem3 (.text:DisplayUartMin_init)
                  000042b4    00000100     rf_multiMode_cc13x0.aem3 : RFCC26XX_multiMode.oem3 (.text:fsmPowerUpState)
                  000043b4    00000100     scif_framework.obj (.text:scifInit)
                  000044b4    000000fc     rf_multiMode_cc13x0.aem3 : RFCC26XX_multiMode.oem3 (.text:RF_close)
                  000045b0    000000fc     drivers_cc13x0.aem3 : UARTCC26XX.oem3 (.text:UARTCC26XX_write)
                  000046ac    000000fc     rtsv7M3_T_le_eabi.lib : fd_mul_t2.obj (.text)
                  000047a8    000000f0     driverlib.lib : setup_rom.obj (.text:NOROM_SetupAfterColdResetWakeupFromShutDownCfg2)
                  00004898    000000f0     rf_multiMode_cc13x0.aem3 : RFCC26XX_multiMode.oem3 (.text:RF_pendCmd)
                  00004988    000000e8     rom_sysbios.aem3 : rom_sysbios.obj (.text:ti_sysbios_knl_Event_pend__E)
                  00004a70    000000e4     dpl_cc13x0.aem3 : PowerCC26XX_tirtos.oem3 (.text:PowerCC26XX_standbyPolicy)
                  00004b54    000000e0     scif_framework.obj (.text:scifCtrlTasksNbl)
                  00004c34    000000dc     driverlib.lib : rfc.obj (.text:NOROM_RFCOverrideUpdate)
                  00004d10    000000dc     drivers_cc13x0.aem3 : PINCC26XX.oem3 (.text:PINCC26XX_setIoCfg)
                  00004dec    000000d8     EasyLink.obj (.text:EasyLink_enableRxAddrFilter)
                  00004ec4    000000d8     rf_multiMode_cc13x0.aem3 : RFCC26XX_multiMode.oem3 (.text:RF_schCmdPriority)
                  00004f9c    000000d8     smartrf_settings_predefined.obj (.text:rf_patch_rfe_genook)
                  00005074    000000d8     smartrf_settings_predefined.obj (.text:rf_patch_rfe_hsp_4mbps)
                  0000514c    000000d4     driverlib.lib : rfc.obj (.text:NOROM_RFCRfTrimRead)
                  00005220    000000d4     rf_multiMode_cc13x0.aem3 : RFCC26XX_multiMode.oem3 (.text:RF_postCmd)
                  000052f4    000000cc     NodeTask.obj (.text:updateLcd)
                  000053c0    000000c4     driverlib.lib : setup.obj (.text:TrimAfterColdResetWakeupFromShutDown)
                  00005484    000000c4     smartrf_settings_predefined.obj (.text:rf_patch_mce_sl_longrange)
                  00005548    000000c0     EasyLink.obj (.text:EasyLink_setCtrl)
                  00005608    000000c0     rf_multiMode_cc13x0.aem3 : RFCC26XX_multiMode.oem3 (.text:abortCmd)
                  000056c8    000000bc     drivers_cc13x0.aem3 : PowerCC26XX.oem3 (.text:Power_releaseDependency)
                  00005784    000000bc                         : UARTCC26XX.oem3 (.text:UARTCC26XX_initHw)
                  00005840    000000b8     rf_multiMode_cc13x0.aem3 : RFCC26XX_multiMode.oem3 (.text:RF_dispatchNextCmd)
                  000058f8    000000b4     drivers_cc13x0.aem3 : PowerCC26XX.oem3 (.text:Power_setDependency)
                  000059ac    000000ac     NodeRadioTask.obj (.text:NodeRadioTask_init)
                  00005a58    000000a8     driverlib.lib : setup.obj (.text:NOROM_SetupTrimDevice)
                  00005b00    000000a8     rf_multiMode_cc13x0.aem3 : RFCC26XX_multiMode.oem3 (.text:discardPendCmd)
                  00005ba8    000000a4     driverlib.lib : setup_rom.obj (.text:NOROM_SetupAfterColdResetWakeupFromShutDownCfg1)
                  00005c4c    000000a4     drivers_cc13x0.aem3 : PowerCC26XX.oem3 (.text:switchXOSCHFclockFunc)
                  00005cf0    000000a0     NodeTask.obj (.text:NodeTask_init)
                  00005d90    000000a0     rf_multiMode_cc13x0.aem3 : RFCC26XX_multiMode.oem3 (.text:RF_schChkCmdInsert)
                  00005e30    000000a0     auto_init.aem3 : auto_init.oem3 (.text)
                  00005ed0    0000009c     rf_multiMode_cc13x0.aem3 : RFCC26XX_multiMode.oem3 (.text:RF_issueRadioFreeCb)
                  00005f6c    0000009c     rtsv7M3_T_le_eabi.lib : memcpy_t2.obj (.text)
                  00006008    0000009c     rf_multiMode_cc13x0.aem3 : RFCC26XX_multiMode.oem3 (.text:swiFxnHw)
                  000060a4    00000098     drivers_cc13x0.aem3 : PINCC26XX.oem3 (.text:PIN_open)
                  0000613c    00000098                         : UARTCC26XX.oem3 (.text:UARTCC26XX_initIO)
                  000061d4    00000098     rom_sysbios.aem3 : rom_sysbios.obj (.text:ti_sysbios_knl_Clock_workFuncDynamic__E)
                  0000626c    0000008c     drivers_cc13x0.aem3 : UARTCC26XX.oem3 (.text:UARTCC26XX_close)
                  000062f8    0000008c                         : UARTCC26XX.oem3 (.text:UARTCC26XX_writeCancel)
                  00006384    0000008c     scif_framework.obj (.text:scifInitIo)
                  00006410    0000008c     drivers_cc13x0.aem3 : UARTCC26XX.oem3 (.text:writeFinishedDoCallback)
                  0000649c    00000086     rtsv7M3_T_le_eabi.lib : fd_cmp_t2.obj (.text:__aeabi_cdcmple)
                  00006522    00000086                           : fd_cmp_t2.obj (.text:__aeabi_cdrcmple)
                  000065a8    00000080     rf_multiMode_cc13x0.aem3 : RFCC26XX_multiMode.oem3 (.text:RF_prepareRadio)
                  00006628    00000080                              : RFCC26XX_multiMode.oem3 (.text:hwiFxnCpe0PowerFsm)
                  000066a8    0000007a     rtsv7M3_T_le_eabi.lib : memset_t2.obj (.text)
                  00006722    00000078     drivers_cc13x0.aem3 : UARTCC26XX.oem3 (.text:writeTxFifoFlush)
                  0000679a    00000002     SceAdc.obj (.text:ctrlReadyCallback)
                  0000679c    00000074     driverlib.lib : setup_rom.obj (.text:NOROM_SetupSetVddrLevel)
                  00006810    00000074     rf_multiMode_cc13x0.aem3 : RFCC26XX_multiMode.oem3 (.text:hwiFxnHw)
                  00006884    00000074     NodeRadioTask.obj (.text:resendPacket)
                  000068f8    00000074     rom_sysbios.aem3 : rom_sysbios.obj (.text:ti_sysbios_family_arm_cc26xx_Timer_start__E)
                  0000696c    00000070     scif_framework.obj (.text:scifGetTaskStruct)
                  000069dc    00000070     rom_sysbios.aem3 : rom_sysbios.obj (.text:ti_sysbios_knl_Event_post__E)
                  00006a4c    0000006d                      : rom_sysbios.obj (.text:xdc_runtime_System_formatNum__I)
                  00006ab9    00000001     --HOLE-- [fill = 0]
                  00006aba    00000002     rf_multiMode_cc13x0.aem3 : RFCC26XX_multiMode.oem3 (.text:defaultCallback)
                  00006abc    0000006c     drivers_cc13x0.aem3 : PowerCC26XX_calibrateRCOSC.oem3 (.text:PowerCC26XX_initiateCalibration)
                  00006b28    00000068     driverlib.lib : setup_rom.obj (.text:NOROM_SetupGetTrimForAmpcompCtrl)
                  00006b90    00000068                   : setup_rom.obj (.text:NOROM_SetupGetTrimForAnabypassValue1)
                  00006bf8    00000068                   : sys_ctrl.obj (.text:NOROM_SysCtrlAdjustRechargeAfterPowerDown)
                  00006c60    00000068                   : sys_ctrl.obj (.text:NOROM_SysCtrl_DCDC_VoltageConditionalControl)
                  00006cc8    00000068     drivers_cc13x0.aem3 : UARTCC26XX.oem3 (.text:UARTCC26XX_readCancel)
                  00006d30    00000068     rtsv7M3_T_le_eabi.lib : copy_decompress_lzss.obj (.text:decompress:lzss)
                  00006d98    00000068     rf_multiMode_cc13x0.aem3 : RFCC26XX_multiMode.oem3 (.text:fsmXOSCState)
                  00006e00    00000068     drivers_cc13x0.aem3 : PowerCC26XX.oem3 (.text:lfClockReadyCallback)
                  00006e68    00000064     EasyLink.obj (.text:EasyLink_init)
                  00006ecc    00000064     driverlib.lib : osc.obj (.text:NOROM_OSCHF_AttemptToSwitchToXosc)
                  00006f30    00000064     drivers_cc13x0.aem3 : PowerCC26XX.oem3 (.text:configureXOSCHF)
                  00006f94    00000060     driverlib.lib : osc.obj (.text:NOROM_OSCClockSourceSet)
                  00006ff4    00000060     drivers_cc13x0.aem3 : UARTCC26XX.oem3 (.text:UARTCC26XX_control)
                  00007054    00000060     smartrf_settings.obj (.text:configureGenfskPatch)
                  000070b4    00000060     smartrf_settings_predefined.obj (.text:configureGenfskPatch)
                  00007114    00000060     smartrf_settings_predefined.obj (.text:configureGenookPatch)
                  00007174    00000060     smartrf_settings_predefined.obj (.text:configureLrmPatch)
                  000071d4    00000060     smartrf_settings_predefined.obj (.text:configureSl_longrangePatch)
                  00007234    0000005c     display.aem3 : Display.oem3 (.text:Display_doOpen)
                  00007290    0000005c     NodeRadioTask.obj (.text:NodeRadioTask_sendAdcData)
                  000072ec    0000005c     drivers_cc13x0.aem3 : PowerCC26XX_calibrateRCOSC.oem3 (.text:PowerCC26XX_RCOSC_clockFunc)
                  00007348    0000005c                         : PowerCC26XX.oem3 (.text:PowerCC26XX_calibrate)
                  000073a4    0000005c     rf_multiMode_cc13x0.aem3 : RFCC26XX_multiMode.oem3 (.text:syncCb)
                  00007400    0000005c     rom_sysbios.aem3 : rom_sysbios.obj (.text:ti_sysbios_heaps_HeapMem_initPrimary__I)
                  0000745c    0000005c     release_pem3.oem3 (.text:xdc_runtime_Startup_getState__I)
                  000074b8    00000058     drivers_cc13x0.aem3 : PINCC26XX.oem3 (.text:PIN_remove)
                  00007510    00000058     rf_multiMode_cc13x0.aem3 : RFCC26XX_multiMode.oem3 (.text:applyRfCorePatch)
                  00007568    00000058                              : RFCC26XX_multiMode.oem3 (.text:calculateDispatchTime)
                  000075c0    00000058                              : RFCC26XX_multiMode.oem3 (.text:ratChanFree)
                  00007618    00000058     NodeRadioTask.obj (.text:rxDoneCallback)
                  00007670    00000058     scif_framework.obj (.text:scifReinitIo)
                  000076c8    00000058     scif_framework.obj (.text:scifUninitIo)
                  00007720    00000054     SceAdc.obj (.text:SceAdc_init)
                  00007774    00000050     driverlib.lib : setup_rom.obj (.text:NOROM_SetupSetCacheModeAccordingToCcfgSetting)
                  000077c4    00000050     rf_multiMode_cc13x0.aem3 : RFCC26XX_multiMode.oem3 (.text:RF_getCurrentTime)
                  00007814    00000050                              : RFCC26XX_multiMode.oem3 (.text:RF_ieeeExpansion)
                  00007864    00000050     drivers_cc13x0.aem3 : UARTCC26XX.oem3 (.text:startTxFifoEmptyClk)
                  000078b4    0000004c     rf_multiMode_cc13x0.aem3 : RFCC26XX_multiMode.oem3 (.text:RF_wakeupNotifyFxn)
                  00007900    0000004c     rtsv7M3_T_le_eabi.lib : cpy_tbl.obj (.text)
                  0000794c    0000004a     display.aem3 : DisplayUart.oem3 (.text:DisplayUartMin_open)
                  00007996    00000002     drivers_cc13x0.aem3 : PowerCC26XX.oem3 (.text:emptyClockFunc)
                  00007998    00000048     dpl_cc13x0.aem3 : ClockP_tirtos.oem3 (.text:ClockP_construct)
                  000079e0    00000048     drivers_cc13x0.aem3 : PINCC26XX.oem3 (.text:PIN_setOutputEnable)
                  00007a28    00000048     rf_multiMode_cc13x0.aem3 : RFCC26XX_multiMode.oem3 (.text:Q_push)
                  00007a70    00000048     rtsv7M3_T_le_eabi.lib : fd_toi_t2.obj (.text)
                  00007ab8    00000046     display.aem3 : DisplayUart.oem3 (.text:DisplayUartMin_vprintf)
                  00007afe    00000002     smartrf_settings.obj (.text:enterGenfskSysPatch)
                  00007b00    00000044     rf_multiMode_cc13x0.aem3 : RFCC26XX_multiMode.oem3 (.text:RF_releasePowerConstraint)
                  00007b44    00000044     drivers_cc13x0.aem3 : RingBuf.oem3 (.text:RingBuf_put)
                  00007b88    00000044     boot.aem3 : boot.oem3 (.text)
                  00007bcc    00000044     drivers_cc13x0.aem3 : PowerCC26XX.oem3 (.text:notify)
                  00007c10    00000044     rtsv7M3_T_le_eabi.lib : fd_tou_t2.obj (.text)
                  00007c54    00000044     scif.obj (.text:scifStartRtcTicks)
                  00007c98    00000040     drivers_cc13x0.aem3 : PINCC26XX.oem3 (.text:PIN_swi)
                  00007cd8    00000040                         : UART.oem3 (.text:UART_init)
                  00007d18    00000040                         : UART.oem3 (.text:UART_open)
                  00007d58    00000040     rtsv7M3_T_le_eabi.lib : u_divt2.obj (.text)
                  00007d98    00000040     scif.obj (.text:scifStartRtcTicksNow)
                  00007dd8    00000040     rom_sysbios.aem3 : rom_sysbios.obj (.text:ti_sysbios_family_arm_cc26xx_Timer_setThreshold__I)
                  00007e18    0000003e     dpl_cc13x0.aem3 : HwiP_tirtos.oem3 (.text:HwiP_construct)
                  00007e56    0000003e     drivers_cc13x0.aem3 : RingBuf.oem3 (.text:RingBuf_get)
                  00007e94    0000003c     driverlib.lib : chipinfo.obj (.text:NOROM_ChipInfo_GetHwRevision)
                  00007ed0    0000003c                   : osc.obj (.text:NOROM_OSC_HPOSCRelativeFrequencyOffsetGet)
                  00007f0c    0000003c                   : rfc.obj (.text:NOROM_RFCSynthPowerDown)
                  00007f48    0000003c     drivers_cc13x0.aem3 : PowerCC26XX.oem3 (.text:PowerCC26XX_isStableXOSC_HF)
                  00007f84    0000003c     dpl_cc13x0.aem3 : SwiP_tirtos.oem3 (.text:SwiP_construct)
                  00007fc0    0000003c     drivers_cc13x0.aem3 : PowerCC26XX.oem3 (.text:disableLfClkQualifiersEnableClkLoss)
                  00007ffc    0000003c     rf_multiMode_cc13x0.aem3 : RFCC26XX_multiMode.oem3 (.text:getCmd)
                  00008038    0000003c     rom_sysbios.aem3 : rom_sysbios.obj (.text:ti_sysbios_family_arm_m3_Hwi_construct2__E)
                  00008074    00000038     drivers_cc13x0.aem3 : PINCC26XX.oem3 (.text:PIN_setOutputValue)
                  000080ac    00000038                         : UARTCC26XX.oem3 (.text:UARTCC26XX_swiIntFxn)
                  000080e4    00000038                         : UARTCC26XX.oem3 (.text:readData)
                  0000811c    00000038     rtsv7M3_T_le_eabi.lib : fs_tod_t2.obj (.text)
                  00008154    00000038     drivers_cc13x0.aem3 : UARTCC26XX.oem3 (.text:writeData)
                  0000818c    00000034     driverlib.lib : osc.obj (.text:NOROM_OSCHF_SwitchToRcOscTurnOffXosc)
                  000081c0    00000034     drivers_cc13x0.aem3 : PINCC26XX.oem3 (.text:PIN_setConfig)
                  000081f4    00000034                         : PowerCC26XX.oem3 (.text:Power_releaseConstraint)
                  00008228    00000034     rf_multiMode_cc13x0.aem3 : RFCC26XX_multiMode.oem3 (.text:Q_end)
                  0000825c    00000034                              : RFCC26XX_multiMode.oem3 (.text:RF_checkCmdFsError)
                  00008290    00000034     NodeTask.obj (.text:buttonCallback)
                  000082c4    00000034     scif_framework.obj (.text:scifAckAlertEvents)
                  000082f8    00000034     scif_framework.obj (.text:scifOsalInit)
                  0000832c    00000034     SceAdc.obj (.text:taskAlertCallback)
                  00008360    00000034     rom_sysbios.aem3 : rom_sysbios.obj (.text:ti_sysbios_family_arm_cc26xx_Timer_initDevice__I)
                  00008394    00000032                      : rom_sysbios.obj (.text:ti_sysbios_family_arm_cc26xx_Timer_setNextTick__E)
                  000083c6    00000002     smartrf_settings_predefined.obj (.text:enterGenfskSysPatch)
                  000083c8    00000030     driverlib.lib : chipinfo.obj (.text:NOROM_ChipInfo_GetChipType)
                  000083f8    00000030                   : setup_rom.obj (.text:NOROM_SetupSetAonRtcSubSecInc)
                  00008428    00000030     drivers_cc13x0.aem3 : PowerCC26XX.oem3 (.text:Power_setConstraint)
                  00008458    00000030     rf_multiMode_cc13x0.aem3 : RFCC26XX_multiMode.oem3 (.text:RF_runCmd)
                  00008488    00000030     scif_framework.obj (.text:osalRegisterCtrlReadyInt)
                  000084b8    00000030     scif_framework.obj (.text:osalRegisterTaskAlertInt)
                  000084e8    00000030     drivers_cc13x0.aem3 : UARTCC26XX.oem3 (.text:readData2RingBuf)
                  00008518    00000030     release_pem3.oem3 (.text:ti_sysbios_BIOS_atExitFunc__I)
                  00008548    00000030     release_pem3.oem3 (.text:ti_sysbios_BIOS_startFunc__I)
                  00008578    00000030     rom_sysbios.aem3 : rom_sysbios.obj (.text:ti_sysbios_family_arm_cc26xx_Timer_getCurrentTick__E)
                  000085a8    0000002e     rtsv7M3_T_le_eabi.lib : i_tofd_t2.obj (.text)
                  000085d6    00000002     smartrf_settings_predefined.obj (.text:enterGenookSysPatch)
                  000085d8    0000002c     driverlib.lib : ddi.obj (.text:NOROM_DDI32RegWrite)
                  00008604    0000002c                   : osc.obj (.text:NOROM_OSCClockSourceGet)
                  00008630    0000002c                   : rfc.obj (.text:NOROM_RFCCPEPatchReset)
                  0000865c    0000002c                   : setup_rom.obj (.text:NOROM_SetupGetTrimForRadcExtCfg)
                  00008688    0000002c     drivers_cc13x0.aem3 : PINCC26XX.oem3 (.text:PINCC26XX_setMux)
                  000086b4    0000002c     dpl_cc13x0.aem3 : SemaphoreP_tirtos.oem3 (.text:SemaphoreP_constructBinary)
                  000086e0    0000002c                     : SemaphoreP_tirtos.oem3 (.text:SemaphoreP_createBinary)
                  0000870c    0000002c     EasyLink.obj (.text:asyncCmdCallback)
                  00008738    0000002c     rf_multiMode_cc13x0.aem3 : RFCC26XX_multiMode.oem3 (.text:clkPowerUpFxn)
                  00008764    0000002c     scif_framework.obj (.text:osalIndicateCtrlReady)
                  00008790    0000002c     scif_framework.obj (.text:osalLockCtrlTaskNbl)
                  000087bc    0000002c     rom_sysbios.aem3 : rom_sysbios.obj (.text:ti_sysbios_knl_Clock_getTicksUntilInterrupt__E)
                  000087e8    0000002c     release_pem3.oem3 (.text:ti_sysbios_knl_Event_construct)
                  00008814    0000002c     rom_sysbios.aem3 : rom_sysbios.obj (.text:ti_sysbios_knl_Event_pendTimeout__I)
                  00008840    0000002a     display.aem3 : Display.oem3 (.text:Display_doPrintf)
                  0000886a    0000002a     rom_sysbios.aem3 : rom_sysbios.obj (.text:ti_sysbios_knl_Clock_getTimeout__E)
                  00008894    0000002a                      : rom_sysbios.obj (.text:xdc_runtime_System_putchar__I)
                  000088be    00000002     smartrf_settings_predefined.obj (.text:enterLrmSysPatch)
                  000088c0    00000028     display.aem3 : Display.oem3 (.text:Display_doInit)
                  000088e8    00000028     driverlib.lib : aon_batmon.obj (.text:NOROM_AONBatMonTemperatureGetDegC)
                  00008910    00000028     drivers_cc13x0.aem3 : PowerCC26XX.oem3 (.text:Power_registerNotify)
                  00008938    00000028     driverlib.lib : adi.obj (.text:SafeHapiVoid)
                  00008960    00000024                   : rfc.obj (.text:NOROM_RFCDoorbellSendTo)
                  00008984    00000024     SceAdc.obj (.text:SceAdc_setReportInterval)
                  000089a8    00000024     NodeTask.obj (.text:adcCallback)
                  000089cc    00000024     rf_multiMode_cc13x0.aem3 : RFCC26XX_multiMode.oem3 (.text:allocCmd)
                  000089f0    00000024     release_pem3.oem3 (.text:ti_sysbios_BIOS_registerRTSLock__I)
                  00008a14    00000024     release_pem3.oem3 (.text:ti_sysbios_BIOS_removeRTSLock__I)
                  00008a38    00000024     rom_sysbios.aem3 : rom_sysbios.obj (.text:ti_sysbios_family_arm_cc26xx_Timer_getMaxTicks__E)
                  00008a5c    00000022     drivers_cc13x0.aem3 : List.oem3 (.text:List_put)
                  00008a7e    00000002     smartrf_settings_predefined.obj (.text:enterSl_longrangeSysPatch)
                  00008a80    00000020     driverlib.lib : rfc.obj (.text:NOROM_RFCAdi3VcoLdoVoltageMode)
                  00008aa0    00000020                   : setup_rom.obj (.text:NOROM_SetupGetTrimForXoscHfCtl)
                  00008ac0    00000020     dpl_cc13x0.aem3 : PowerCC26XX_tirtos.oem3 (.text:PowerCC26XX_schedulerDisable)
                  00008ae0    00000020                     : PowerCC26XX_tirtos.oem3 (.text:PowerCC26XX_schedulerRestore)
                  00008b00    00000020     drivers_cc13x0.aem3 : PowerCC26XX.oem3 (.text:Power_unregisterNotify)
                  00008b20    00000020     NodeRadioTask.obj (.text:returnRadioOperationStatus)
                  00008b40    00000020     scif.obj (.text:scifTaskResourceInit)
                  00008b60    00000020     release_pem3.oem3 (.text:ti_sysbios_BIOS_rtsLock__I)
                  00008b80    00000020     rom_sysbios.aem3 : rom_sysbios.obj (.text:ti_sysbios_family_arm_cc26xx_Timer_dynamicStub__E)
                  00008ba0    00000020                      : rom_sysbios.obj (.text:ti_sysbios_knl_Clock_stop__E)
                  00008bc0    00000020                      : rom_sysbios.obj (.text:ti_sysbios_knl_Event_checkEvents__I)
                  00008be0    00000020                      : rom_sysbios.obj (.text:xdc_runtime_Error_policyMin__E)
                  00008c00    0000001e     drivers_cc13x0.aem3 : PINCC26XX.oem3 (.text:PIN_close)
                  00008c1e    0000001e                         : PowerCC26XX.oem3 (.text:Power_getTransitionLatency)
                  00008c3c    0000001c     driverlib.lib : chipinfo.obj (.text:NOROM_ChipInfo_GetChipFamily)
                  00008c58    0000001c                   : setup_rom.obj (.text:NOROM_SetupGetTrimForAmpcompTh2)
                  00008c74    0000001c                   : setup_rom.obj (.text:NOROM_SetupGetTrimForRcOscLfRtuneCtuneTrim)
                  00008c90    0000001c     drivers_cc13x0.aem3 : PINCC26XX.oem3 (.text:PINCC26XX_setIoCfgMux)
                  00008cac    0000001c                         : PINCC26XX.oem3 (.text:PIN_hwi)
                  00008cc8    0000001c     rf_multiMode_cc13x0.aem3 : RFCC26XX_multiMode.oem3 (.text:RF_setPowerConstraint)
                  00008ce4    0000001c                              : RFCC26XX_multiMode.oem3 (.text:clkInactivityFxn)
                  00008d00    0000001c     smartrf_settings.obj (.text:enterGenfskCpePatch)
                  00008d1c    0000001c     smartrf_settings_predefined.obj (.text:enterGenfskCpePatch)
                  00008d38    0000001c     smartrf_settings_predefined.obj (.text:enterGenookCpePatch)
                  00008d54    0000001c     smartrf_settings_predefined.obj (.text:enterLrmCpePatch)
                  00008d70    0000001c     smartrf_settings_predefined.obj (.text:enterSl_longrangeCpePatch)
                  00008d8c    0000001c     rf_multiMode_cc13x0.aem3 : RFCC26XX_multiMode.oem3 (.text:hwiFxnCpe0ChangePhy)
                  00008da8    0000001c     rom_sysbios.aem3 : rom_sysbios.obj (.text:ti_sysbios_family_arm_m3_Hwi_clearInterrupt__E)
                  00008dc4    0000001c                      : rom_sysbios.obj (.text:ti_sysbios_knl_Swi_construct2__E)
                  00008de0    0000001a     rfWsnNode.obj (.text:main)
                  00008dfa    00000002     rtsv7M3_T_le_eabi.lib : i_div0.obj (.text)
                  00008dfc    00000018     CC1310_LAUNCHXL.obj (.text:CC1310_LAUNCHXL_initGeneral)
                  00008e14    00000018     EasyLink.obj (.text:EasyLink_Params_init)
                  00008e2c    00000018     driverlib.lib : aon_rtc.obj (.text:NOROM_AONRTCCurrentCompareValueGet)
                  00008e44    00000018                   : chipinfo.obj (.text:NOROM_ChipInfo_GetPackageType)
                  00008e5c    00000018                   : osc.obj (.text:NOROM_OSCHF_TurnOnXosc)
                  00008e74    00000018                   : rfc.obj (.text:NOROM_RFCCpeIntGetAndClear)
                  00008e8c    00000018                   : rfc.obj (.text:NOROM_RFCHWIntGetAndClear)
                  00008ea4    00000018                   : setup_rom.obj (.text:NOROM_SetupGetTrimForAdcShModeEn)
                  00008ebc    00000018                   : setup_rom.obj (.text:NOROM_SetupGetTrimForAdcShVbufEn)
                  00008ed4    00000018                   : setup_rom.obj (.text:NOROM_SetupGetTrimForAmpcompTh1)
                  00008eec    00000018                   : setup_rom.obj (.text:NOROM_SetupGetTrimForDblrLoopFilterResetVoltage)
                  00008f04    00000018                   : setup_rom.obj (.text:NOROM_SetupGetTrimForRcOscLfIBiasTrim)
                  00008f1c    00000018                   : setup_rom.obj (.text:NOROM_SetupGetTrimForXoscLfRegulatorAndCmirrwrRatio)
                  00008f34    00000018     drivers_cc13x0.aem3 : PowerCC26XX.oem3 (.text:Power_idleFunc)
                  00008f4c    00000018     rf_multiMode_cc13x0.aem3 : RFCC26XX_multiMode.oem3 (.text:Q_pop)
                  00008f64    00000018     drivers_cc13x0.aem3 : UARTCC26XX.oem3 (.text:UARTCC26XX_init)
                  00008f7c    00000018                         : UART.oem3 (.text:UART_Params_init)
                  00008f94    00000018                         : PowerCC26XX.oem3 (.text:configureRFCoreClocks)
                  00008fac    00000018     rtsv7M3_T_le_eabi.lib : args_main.obj (.text)
                  00008fc4    00000018                           : ll_mul_t2.obj (.text)
                  00008fdc    00000018     scif_framework.obj (.text:scifClearAlertIntSource)
                  00008ff4    00000018     scif.obj (.text:scifTaskResourceUninit)
                  0000900c    00000018     rf_multiMode_cc13x0.aem3 : RFCC26XX_multiMode.oem3 (.text:swiFxnFsm)
                  00009024    00000018     release_pem3.oem3 (.text:ti_sysbios_BIOS_rtsUnlock__I)
                  0000903c    00000018     rom_sysbios.aem3 : rom_sysbios.obj (.text:ti_sysbios_knl_Swi_or__E)
                  00009054    00000018     release_pem3.oem3 (.text:ti_sysbios_rom_cortexm_cc13xx_CC13xx_checkRevision__E)
                  0000906c    00000018     rom_sysbios.aem3 : rom_sysbios.obj (.text:xdc_runtime_Error_init__E)
                  00009084    00000016     display.aem3 : DisplayUart.oem3 (.text:DisplayUartMin_close)
                  0000909a    00000016     drivers_cc13x0.aem3 : List.oem3 (.text:List_remove)
                  000090b0    00000016     driverlib.lib : chipinfo.obj (.text:NOROM_ThisLibraryIsFor_CC13x0_HwRev20AndLater_HaltIfViolated)
                  000090c6    00000016     release_pem3.oem3 (.text:ti_sysbios_BIOS_exitFunc__I)
                  000090dc    00000016     scif_framework.obj (.text:ti_sysbios_family_arm_m3_Hwi_Params_init)
                  000090f2    00000016     NodeTask.obj (.text:ti_sysbios_knl_Clock_Params_init)
                  00009108    00000016     NodeRadioTask.obj (.text:ti_sysbios_knl_Event_Params_init)
                  0000911e    00000016     NodeTask.obj (.text:ti_sysbios_knl_Event_Params_init)
                  00009134    00000016     EasyLink.obj (.text:ti_sysbios_knl_Semaphore_Params_init)
                  0000914a    00000016     NodeRadioTask.obj (.text:ti_sysbios_knl_Semaphore_Params_init)
                  00009160    00000016     scif_framework.obj (.text:ti_sysbios_knl_Semaphore_Params_init)
                  00009176    00000016     NodeRadioTask.obj (.text:ti_sysbios_knl_Task_Params_init)
                  0000918c    00000016     NodeTask.obj (.text:ti_sysbios_knl_Task_Params_init)
                  000091a2    00000002     rom_sysbios.aem3 : rom_sysbios.obj (.text:ti_sysbios_BIOS_linkedWithIncorrectBootLibrary__E)
                  000091a4    00000014     NodeRadioTask.obj (.text:AONBatMonBatteryVoltageGet)
                  000091b8    00000014     driverlib.lib : aon_rtc.obj (.text:NOROM_AONRTCCurrent64BitValueGet)
                  000091cc    00000014     drivers_cc13x0.aem3 : PINCC26XX.oem3 (.text:PINCC26XX_getInputValue)
                  000091e0    00000014                         : PINCC26XX.oem3 (.text:PINCC26XX_getOutputValue)
                  000091f4    00000014     rf_multiMode_cc13x0.aem3 : RFCC26XX_multiMode.oem3 (.text:RF_Params_init)
                  00009208    00000014     SceAdc.obj (.text:SceAdc_registerAdcCallback)
                  0000921c    00000014     scif_framework.obj (.text:osalIndicateTaskAlert)
                  00009230    00000014     rtsv7M3_T_le_eabi.lib : _lock.obj (.text)
                  00009244    00000014                           : strlen.obj (.text)
                  00009258    00000014     scif_framework.obj (.text:scifOsalRegisterCtrlReadyCallback)
                  0000926c    00000014     scif_framework.obj (.text:scifOsalRegisterTaskAlertCallback)
                  00009280    00000014     release_pem3.oem3 (.text:ti_sysbios_knl_Clock_doTick__I)
                  00009294    00000014     rom_sysbios.aem3 : rom_sysbios.obj (.text:ti_sysbios_knl_Event_Instance_init__E)
                  000092a8    00000012     rf_multiMode_cc13x0.aem3 : RFCC26XX_multiMode.oem3 (.text:RF_schPriorityCompare)
                  000092ba    00000012     drivers_cc13x0.aem3 : RingBuf.oem3 (.text:RingBuf_construct)
                  000092cc    00000012     dpl_cc13x0.aem3 : SemaphoreP_tirtos.oem3 (.text:SemaphoreP_pend)
                  000092de    00000012     scif_framework.obj (.text:scifStartTasksNbl)
                  000092f0    00000012     release_pem3.oem3 (.text:xdc_runtime_Startup_exec__I)
                  00009302    00000010     dpl_cc13x0.aem3 : ClockP_tirtos.oem3 (.text:ClockP_isActive)
                  00009312    00000010                     : HwiP_tirtos.oem3 (.text:HwiP_Params_init)
                  00009322    00000002     release_pem3.oem3 (.text:ti_sysbios_BIOS_nullFunc__I)
                  00009324    00000010     driverlib.lib : rfc.obj (.text:NOROM_RFCRfTrimSet)
                  00009334    00000010                   : setup_rom.obj (.text:NOROM_SetupGetTrimForXoscHfFastStart)
                  00009344    00000010                   : setup_rom.obj (.text:NOROM_SetupGetTrimForXoscHfIbiastherm)
                  00009354    00000010     drivers_cc13x0.aem3 : PINCC26XX.oem3 (.text:PINCC26XX_getPinCount)
                  00009364    00000010     dpl_cc13x0.aem3 : SwiP_tirtos.oem3 (.text:SwiP_Params_init)
                  00009374    00000010     smartrf_settings.obj (.text:applyGenfskPatch)
                  00009384    00000010     smartrf_settings_predefined.obj (.text:applyGenfskPatch)
                  00009394    00000010     smartrf_settings_predefined.obj (.text:applyGenookPatch)
                  000093a4    00000010     smartrf_settings_predefined.obj (.text:applyLrmPatch)
                  000093b4    00000010     smartrf_settings_predefined.obj (.text:applySl_longrangePatch)
                  000093c4    00000010     NodeTask.obj (.text:fastReportTimeoutCallback)
                  000093d4    00000010     rf_multiMode_cc13x0.aem3 : RFCC26XX_multiMode.oem3 (.text:isClientOwner)
                  000093e4    00000010     rom_sysbios.aem3 : rom_sysbios.obj (.text:ti_sysbios_family_arm_m3_Hwi_post__E)
                  000093f4    00000010     drivers_cc13x0.aem3 : UARTCC26XX.oem3 (.text:uartPostNotify)
                  00009404    00000010     rom_sysbios.aem3 : rom_sysbios.obj (.text:xdc_runtime_SysCallback_putch__E)
                  00009414    00000010                      : rom_sysbios.obj (.text:xdc_runtime_SysCallback_ready__E)
                  00009424    00000010                      : rom_sysbios.obj (.text:xdc_runtime_System_vsnprintf__E)
                  00009434    0000000e     driverlib.lib : vims.obj (.text:NOROM_VIMSModeGet)
                  00009442    0000000e     rtsv7M3_T_le_eabi.lib : copy_decompress_none.obj (.text:decompress:none)
                  00009450    0000000e     scif_framework.obj (.text:osalCtrlReadyIsr)
                  0000945e    0000000e     scif_framework.obj (.text:osalTaskAlertIsr)
                  0000946c    0000000e     rom_sysbios.aem3 : rom_sysbios.obj (.text:ti_sysbios_family_arm_cc26xx_TimestampProvider_get32__E)
                  0000947a    0000000c     display.aem3 : Display.oem3 (.text:Display_doClear)
                  00009486    00000002     rom_sysbios.aem3 : rom_sysbios.obj (.text:ti_sysbios_knl_Clock_triggerFunc__I)
                  00009488    0000000c     rf_multiMode_cc13x0.aem3 : RFCC26XX_multiMode.oem3 (.text:FsmNextState)
                  00009494    0000000c     drivers_cc13x0.aem3 : List.oem3 (.text:List_empty)
                  000094a0    0000000c     driverlib.lib : cpu.obj (.text:NOROM_CPUcpsid)
                  000094ac    0000000c                   : cpu.obj (.text:NOROM_CPUcpsie)
                  000094b8    0000000c                   : osc.obj (.text:NOROM_OSC_HPOSCRelativeFrequencyOffsetToRFCoreFormatConvert)
                  000094c4    0000000c     drivers_cc13x0.aem3 : PINCC26XX.oem3 (.text:PIN_registerIntCb)
                  000094d0    0000000c                         : PowerCC26XX.oem3 (.text:Power_getConstraintMask)
                  000094dc    0000000c                         : PowerCC26XX.oem3 (.text:Power_getDependencyCount)
                  000094e8    0000000c     dpl_cc13x0.aem3 : SemaphoreP_tirtos.oem3 (.text:SemaphoreP_delete)
                  000094f4    0000000c     rtsv7M3_T_le_eabi.lib : copy_zero_init.obj (.text:decompress:ZI)
                  00009500    0000000c     NodeRadioTask.obj (.text:nodeRadioTask_getNodeAddr)
                  0000950c    0000000c     scif_framework.obj (.text:osalUnlockCtrlTaskNbl)
                  00009518    0000000c     scif_framework.obj (.text:scifGetAlertEvents)
                  00009524    0000000c     scif_framework.obj (.text:scifOsalLeaveCriticalSection)
                  00009530    0000000c     NodeTask.obj (.text:ti_sysbios_knl_Clock_handle)
                  0000953c    0000000c     release_pem3.oem3 (.text:ti_sysbios_knl_Event_Params__init__S)
                  00009548    0000000c     NodeRadioTask.obj (.text:ti_sysbios_knl_Event_handle)
                  00009554    0000000c     NodeTask.obj (.text:ti_sysbios_knl_Event_handle)
                  00009560    0000000c     NodeRadioTask.obj (.text:ti_sysbios_knl_Semaphore_handle)
                  0000956c    0000000c     scif_framework.obj (.text:ti_sysbios_knl_Semaphore_handle)
                  00009578    0000000c     rom_sysbios.aem3 : rom_sysbios.obj (.text:ti_sysbios_knl_Swi_getTrigger__E)
                  00009584    0000000c     release_pem3.oem3 (.text:xdc_runtime_Startup_reset__I)
                  00009590    0000000c     rom_sysbios.aem3 : rom_sysbios.obj (.text:xdc_runtime_Startup_rtsDone__E)
                  0000959c    0000000a     SceAdc.obj (.text:SceAdc_start)
                  000095a6    0000000a     drivers_cc13x0.aem3 : UART.oem3 (.text:UART_close)
                  000095b0    0000000a                         : UART.oem3 (.text:UART_control)
                  000095ba    0000000a                         : UART.oem3 (.text:UART_write)
                  000095c4    0000000a     scif_framework.obj (.text:osalClearCtrlReadyInt)
                  000095ce    0000000a     scif_framework.obj (.text:osalClearTaskAlertInt)
                  000095d8    0000000a     scif_framework.obj (.text:osalDisableCtrlReadyInt)
                  000095e2    0000000a     scif_framework.obj (.text:osalEnableCtrlReadyInt)
                  000095ec    0000000a     scif_framework.obj (.text:scifOsalDisableTaskAlertInt)
                  000095f6    0000000a     scif_framework.obj (.text:scifOsalEnableTaskAlertInt)
                  00009600    00000008     rf_multiMode_cc13x0.aem3 : RFCC26XX_multiMode.oem3 (.text:RF_flushCmd)
                  00009608    00000008     drivers_cc13x0.aem3 : UARTCC26XX.oem3 (.text:readSemCallback)
                  00009610    00000008     smartrf_settings.obj (.text:rf_patch_cpe_genfsk)
                  00009618    00000008     smartrf_settings_predefined.obj (.text:rf_patch_cpe_genfsk)
                  00009620    00000008     smartrf_settings_predefined.obj (.text:rf_patch_cpe_genook)
                  00009628    00000008     smartrf_settings_predefined.obj (.text:rf_patch_cpe_lrm)
                  00009630    00000008     smartrf_settings_predefined.obj (.text:rf_patch_cpe_sl_longrange)
                  00009638    00000008     scif_framework.obj (.text:scifOsalEnterCriticalSection)
                  00009640    00000008     drivers_cc13x0.aem3 : UARTCC26XX.oem3 (.text:writeSemCallback)
                  00009648    00000006     dpl_cc13x0.aem3 : ClockP_tirtos.oem3 (.text:ClockP_Params_init)
                  0000964e    00000006     display.aem3 : DisplayUart.oem3 (.text:DisplayUartMin_control)
                  00009654    00000006                  : DisplayUart.oem3 (.text:DisplayUartMin_getType)
                  0000965a    00000006                  : Display.oem3 (.text:Display_doParamsInit)
                  00009660    00000006     driverlib.lib : cpu.obj (.text:NOROM_CPUdelay)
                  00009666    00000006     drivers_cc13x0.aem3 : UARTCC26XX.oem3 (.text:UARTCC26XX_readPolling)
                  0000966c    00000006                         : UARTCC26XX.oem3 (.text:UARTCC26XX_writePolling)
                  00009672    00000006     rf_multiMode_cc13x0.aem3 : RFCC26XX_multiMode.oem3 (.text:clkReqAccessFxn)
                  00009678    00000006     rom_sysbios.aem3 : rom_sysbios.obj (.text:ti_sysbios_family_arm_m3_Hwi_setFunc__E)
                  0000967e    00000004     dpl_cc13x0.aem3 : ClockP_tirtos.oem3 (.text:ClockP_destruct)
                  00009682    00000004                     : ClockP_tirtos.oem3 (.text:ClockP_getCpuFreq)
                  00009686    00000004                     : ClockP_tirtos.oem3 (.text:ClockP_getTimeout)
                  0000968a    00000004                     : ClockP_tirtos.oem3 (.text:ClockP_setTimeout)
                  0000968e    00000004                     : ClockP_tirtos.oem3 (.text:ClockP_start)
                  00009692    00000004                     : ClockP_tirtos.oem3 (.text:ClockP_stop)
                  00009696    00000004                     : HwiP_tirtos.oem3 (.text:HwiP_destruct)
                  0000969a    00000004                     : HwiP_tirtos.oem3 (.text:HwiP_disable)
                  0000969e    00000004                     : HwiP_tirtos.oem3 (.text:HwiP_enableInterrupt)
                  000096a2    00000004                     : HwiP_tirtos.oem3 (.text:HwiP_post)
                  000096a6    00000004                     : HwiP_tirtos.oem3 (.text:HwiP_setFunc)
                  000096aa    00000004     drivers_cc13x0.aem3 : List.oem3 (.text:List_head)
                  000096ae    00000004                         : List.oem3 (.text:List_next)
                  000096b2    00000004                         : PowerCC26XX.oem3 (.text:PowerCC26XX_switchXOSC_HF)
                  000096b6    00000004     rf_multiMode_cc13x0.aem3 : RFCC26XX_multiMode.oem3 (.text:Q_peek)
                  000096ba    00000004     dpl_cc13x0.aem3 : SemaphoreP_tirtos.oem3 (.text:SemaphoreP_destruct)
                  000096be    00000004                     : SemaphoreP_tirtos.oem3 (.text:SemaphoreP_post)
                  000096c2    00000004                     : SwiP_tirtos.oem3 (.text:SwiP_destruct)
                  000096c6    00000004                     : SwiP_tirtos.oem3 (.text:SwiP_disable)
                  000096ca    00000004                     : SwiP_tirtos.oem3 (.text:SwiP_getTrigger)
                  000096ce    00000004                     : SwiP_tirtos.oem3 (.text:SwiP_or)
                  000096d2    00000004                     : SwiP_tirtos.oem3 (.text:SwiP_post)
                  000096d6    00000004                     : SystemP_tirtos.oem3 (.text:SystemP_vsnprintf)
                  000096da    00000004     drivers_cc13x0.aem3 : PowerCC26XX.oem3 (.text:nopResourceHandler)
                  000096de    00000004     rom_sysbios.aem3 : rom_sysbios.obj (.text:ti_sysbios_family_arm_cc26xx_Timer_getCount64__E)
                  000096e2    00000004                      : rom_sysbios.obj (.text:ti_sysbios_knl_Clock_isActive__E)
                  000096e6    00000004                      : rom_sysbios.obj (.text:xdc_runtime_SysCallback_defaultReady)
                  000096ea    00000002     release_pem3.oem3 (.text:ti_sysbios_rom_cortexm_cc13xx_CC13xx_badRomRevision__E)
                  000096ec    00000002     rom_sysbios.aem3 : rom_sysbios.obj (.text:xdc_runtime_SysCallback_defaultAbort)
                  000096ee    00000002                      : rom_sysbios.obj (.text:xdc_runtime_SysCallback_defaultExit)
                  000096f0    00000002                      : rom_sysbios.obj (.text:xdc_runtime_SysCallback_defaultPutch)
                  000096f2    00000002     --HOLE-- [fill = 0]
                  000096f4    00000008     (.tramp.ti_sysbios_knl_Swi_destruct.1)
                  000096fc    00000008     (.tramp.ti_sysbios_knl_Semaphore_destruct.1)
                  00009704    00000008     (.tramp.ti_sysbios_family_arm_m3_Hwi_destruct.1)
                  0000970c    00000008     (.tramp.ti_sysbios_BIOS_getCpuFreq__E.1)
                  00009714    00000008     (.tramp.ti_sysbios_knl_Clock_destruct.1)
                  0000971c    00000008     (.tramp.ti_sysbios_family_arm_m3_Hwi_enableInterrupt__E.1)
                  00009724    00000008     (.tramp.ti_sysbios_family_arm_m3_Hwi_disableInterrupt__E.1)
                  0000972c    00000008     (.tramp.xdc_runtime_Core_assignParams__I.1)
                  00009734    00000008     (.tramp.ti_sysbios_knl_Semaphore_delete.1)
                  0000973c    00000008     (.tramp.xdc_runtime_Startup_startMods__I.1)
                  00009744    00000008     (.tramp.ti_sysbios_knl_Queue_construct.1)
                  0000974c    00000008     (.tramp.ti_sysbios_knl_Clock_logTick__E.1)
                  00009754    00000008     (.tramp.ti_sysbios_knl_Task_Params__init__S.1)
                  0000975c    00000008     (.tramp.ti_sysbios_knl_Swi_post__E.1)
                  00009764    00000008     (.tramp.ti_sysbios_BIOS_RtsGateProxy_leave__E.1)
                  0000976c    00000008     (.tramp.ti_sysbios_BIOS_start__E.1)
                  00009774    00000008     (.tramp.ti_sysbios_knl_Swi_construct.1)
                  0000977c    00000008     (.tramp.ti_sysbios_BIOS_RtsGateProxy_enter__E.1)
                  00009784    00000008     (.tramp.xdc_runtime_Core_constructObject__I.1)
                  0000978c    00000008     (.tramp.ti_sysbios_family_arm_m3_Hwi_disableFxn__E.1)
                  00009794    00000008     (.tramp.ti_sysbios_knl_Semaphore_Params__init__S.1)
                  0000979c    00000008     (.tramp.ti_sysbios_knl_Task_startup__E.1)
                  000097a4    00000008     (.tramp.ti_sysbios_knl_Swi_startup__E.1)
                  000097ac    00000008     (.tramp.ti_sysbios_hal_Hwi_startup__E.1)
                  000097b4    00000008     (.tramp.ti_sysbios_family_arm_cc26xx_Timer_startup__E.1)
                  000097bc    00000008     (.tramp.xdc_runtime_System_atexit__E.1)
                  000097c4    00000008     (.tramp.ti_sysbios_BIOS_setThreadType__E.1)
                  000097cc    00000008     (.tramp.ti_sysbios_knl_Swi_disable__E.1)
                  000097d4    00000008     (.tramp.ti_sysbios_family_arm_m3_Hwi_construct.1)
                  000097dc    00000008     (.tramp.ti_sysbios_knl_Swi_Params__init__S.1)
                  000097e4    00000008     (.tramp.ti_sysbios_family_arm_m3_Hwi_Params__init__S.1)
                  000097ec    00000008     (.tramp.xdc_runtime_System_exit__E.1)
                  000097f4    00000008     (.tramp.ti_sysbios_knl_Clock_Params__init__S.1)
                  000097fc    00000008     (.tramp.ti_sysbios_heaps_HeapMem_restore__E.1)
                  00009804    00000008     (.tramp.ti_sysbios_heaps_HeapMem_Object__get__S.1)
                  0000980c    00000008     (.tramp.ti_sysbios_knl_Task_unblockI__E.1)
                  00009814    00000008     (.tramp.ti_sysbios_knl_Queue_remove__E.1)
                  0000981c    00000008     (.tramp.ti_sysbios_knl_Queue_head__E.1)
                  00009824    00000008     (.tramp.ti_sysbios_knl_Queue_empty__E.1)
                  0000982c    00000008     (.tramp.ti_sysbios_knl_Clock_scheduleNextTick__E.1)
                  00009834    00000008     (.tramp.ti_sysbios_knl_Clock_walkQueueDynamic__E.1)
                  0000983c    00000008     (.tramp.ti_sysbios_knl_Clock_TimerProxy_getCurrentTick__E.1)
                  00009844    00000008     (.tramp.ti_sysbios_knl_Clock_construct.1)
                  0000984c    00000008     (.tramp.ti_sysbios_knl_Task_construct.1)
                  00009854    00000008     (.tramp.ti_sysbios_knl_Semaphore_construct.1)
                  0000985c    00000008     (.tramp.ti_sysbios_knl_Clock_removeI__E.1)
                  00009864    00000008     (.tramp.ti_sysbios_knl_Task_restore__E.1)
                  0000986c    00000008     (.tramp.ti_sysbios_knl_Clock_startI__E.1)
                  00009874    00000008     (.tramp.ti_sysbios_knl_Task_blockI__E.1)
                  0000987c    00000008     (.tramp.ti_sysbios_knl_Queue_enqueue__E.1)
                  00009884    00000008     (.tramp.ti_sysbios_knl_Task_disable__E.1)
                  0000988c    00000008     (.tramp.ti_sysbios_knl_Task_self__E.1)
                  00009894    00000008     (.tramp.ti_sysbios_knl_Clock_addI__E.1)
                  0000989c    00000008     (.tramp.ti_sysbios_knl_Task_sleep__E.1)
                  000098a4    00000008     (.tramp.ti_sysbios_knl_Clock_getTicks__E.1)
                  000098ac    00000008     (.tramp.ti_sysbios_knl_Clock_start__E.1)
                  000098b4    00000008     (.tramp.ti_sysbios_knl_Clock_setTimeout__E.1)
                  000098bc    00000008     (.tramp.xdc_runtime_System_abort__E.1)
                  000098c4    00000008     (.tramp.ti_sysbios_knl_Swi_restore__E.1)

.const     0    000098cc    00004818     
                  000098cc    0000073c     smartrf_settings_predefined.obj (.const:patchGenookMce)
                  0000a008    000006b4     smartrf_settings.obj (.const:patchGenfskRfe)
                  0000a6bc    000006b4     smartrf_settings_predefined.obj (.const:patchGenfskRfe)
                  0000ad70    000006b4     smartrf_settings_predefined.obj (.const:patchLrmRfe)
                  0000b424    000006b4     smartrf_settings_predefined.obj (.const:patchSl_longrangeRfe)
                  0000bad8    000006a4     smartrf_settings_predefined.obj (.const:patchGenookRfe)
                  0000c17c    00000504     smartrf_settings_predefined.obj (.const:patchHsp4mbpsRfe)
                  0000c680    00000400     smartrf_settings_predefined.obj (.const:patchSl_longrangeMce)
                  0000ca80    000003f0     smartrf_settings_predefined.obj (.const:patchHsp4mbpsMce)
                  0000ce70    000002b0     smartrf_settings.obj (.const:patchImageGenfsk)
                  0000d120    000002b0     smartrf_settings_predefined.obj (.const:patchImageGenfsk)
                  0000d3d0    000002b0     smartrf_settings_predefined.obj (.const:patchImageGenook)
                  0000d680    000002b0     smartrf_settings_predefined.obj (.const:patchImageLrm)
                  0000d930    000002b0     smartrf_settings_predefined.obj (.const:patchImageSl_longrange)
                  0000dbe0    000001e4     scif.obj (.const:pAuxRamImage)
                  0000ddc4    0000004c     drivers_cc13x0.aem3 : PowerCC26XX.oem3 (.const:resourceDB)
                  0000de10    00000048     release_pem3.oem3 (.const:.string)
                  0000de58    00000040     drivers_cc13x0.aem3 : UARTCC26XX.oem3 (.const:$O1$$)
                  0000de98    00000030     scif.obj (.const:scifDriverSetup)
                  0000dec8    0000002c     CC1310_LAUNCHXL.obj (.const:BoardGpioInitTable)
                  0000def4    00000028     drivers_cc13x0.aem3 : UARTCC26XX.oem3 (.const:UARTCC26XX_fxnTable)
                  0000df1c    00000024                         : UART.oem3 (.const:UART_defaultParams)
                  0000df40    00000024     release_pem3.oem3 (.const:xdc_runtime_Startup_sfxnTab__A)
                  0000df64    00000020     display.aem3 : DisplayUart.oem3 (.const:DisplayUartMin_fxnTable)
                  0000df84    00000020     release_pem3.oem3 (.const:ti_sysbios_knl_Event_Object__DESC__C)
                  0000dfa4    00000020     CC1310_LAUNCHXL.obj (.const:uartCC26XXHWAttrs)
                  0000dfc4    0000001c     rf_multiMode_cc13x0.aem3 : RFCC26XX_multiMode.oem3 (.const:RF_defaultParams)
                  0000dfe0    00000018     CC1310_LAUNCHXL.obj (.const:PowerCC26XX_config)
                  0000dff8    00000018     driverlib.lib : rfc.obj (.const:rfc_defaultIrqAddr)
                  0000e010    00000018     release_pem3.oem3 (.const:ti_sysbios_knl_Event_Object__PARAMS__C)
                  0000e028    00000014     CC1310_LAUNCHXL.obj (.const:displayUartHWAttrs)
                  0000e03c    00000012     release_pem3.oem3 (.const:xdc_runtime_Startup_sfxnRts__A)
                  0000e04e    00000010     scif.obj (.const:.string:pAuxIoIndexToMcuIocfgOffsetLut)
                  0000e05e    00000001     display.aem3 : Display.oem3 (.const:Display_defaultParams)
                  0000e05f    00000001     release_pem3.oem3 (.const:xdc_runtime_Text_charTab__A)
                  0000e060    00000010     scif.obj (.const:pScifTaskDataStructInfoLut)
                  0000e070    0000000c     CC1310_LAUNCHXL.obj (.const:Display_config)
                  0000e07c    0000000c     EasyLink.obj (.const:EasyLink_defaultParams)
                  0000e088    0000000c     CC1310_LAUNCHXL.obj (.const:UART_config)
                  0000e094    0000000c     release_pem3.oem3 (.const:xdc_runtime_Startup_firstFxns__A)
                  0000e0a0    00000009     CC1310_LAUNCHXL.obj (.const)
                  0000e0a9    00000003     --HOLE-- [fill = 0]
                  0000e0ac    00000008     CC1310_LAUNCHXL.obj (.const:PINCC26XX_hwAttrs)
                  0000e0b4    00000004     CC1310_LAUNCHXL.obj (.const:RFCC26XX_hwAttrs)
                  0000e0b8    00000004     release_pem3.oem3 (.const:ti_sysbios_family_arm_m3_Hwi_swiDisable__C)
                  0000e0bc    00000004     release_pem3.oem3 (.const:ti_sysbios_family_arm_m3_Hwi_swiRestoreHwi__C)
                  0000e0c0    00000004     release_pem3.oem3 (.const:ti_sysbios_heaps_HeapMem_primaryHeapBaseAddr__C)
                  0000e0c4    00000004     release_pem3.oem3 (.const:ti_sysbios_heaps_HeapMem_primaryHeapEndAddr__C)
                  0000e0c8    00000004     release_pem3.oem3 (.const:ti_sysbios_knl_Clock_tickPeriod__C)
                  0000e0cc    00000004     release_pem3.oem3 (.const:ti_sysbios_knl_Clock_triggerClock__C)
                  0000e0d0    00000004     release_pem3.oem3 (.const:ti_sysbios_knl_Event_Instance_State_pendQ__O)
                  0000e0d4    00000004     release_pem3.oem3 (.const:ti_sysbios_knl_Idle_funcList__A)
                  0000e0d8    00000004     release_pem3.oem3 (.const:xdc_runtime_SysCallback_putchFxn__C)
                  0000e0dc    00000004     release_pem3.oem3 (.const:xdc_runtime_SysCallback_readyFxn__C)
                  0000e0e0    00000004     release_pem3.oem3 (.const:xdc_runtime_System_extendFxn__C)

.cinit     0    0000e0e8    00000458     
                  0000e0e8    0000031e     (.cinit..data.load) [load image, compression = lzss]
                  0000e406    00000028     (.cinit..data:ti_sysbios_family_arm_m3_Hwi_Module__state__V.load) [load image, compression = lzss]
                  0000e42e    00000021     (.cinit..data:ti_sysbios_knl_Task_Module__state__V.load) [load image, compression = lzss]
                  0000e44f    0000001f     (.cinit..data:ti_sysbios_BIOS_Module__state__V.load) [load image, compression = lzss]
                  0000e46e    0000001e     (.cinit..data:ti_sysbios_knl_Clock_Module__state__V.load) [load image, compression = lzss]
                  0000e48c    00000010     (.cinit..data:ti_sysbios_knl_Swi_Module__state__V.load) [load image, compression = lzss]
                  0000e49c    0000000c     (__TI_handler_table)
                  0000e4a8    0000000b     (.cinit..data:ti_sysbios_family_arm_cc26xx_Timer_Module__state__V.load) [load image, compression = lzss]
                  0000e4b3    0000000b     (.cinit..data:xdc_runtime_System_Module__state__V.load) [load image, compression = lzss]
                  0000e4be    00000002     --HOLE-- [fill = 0]
                  0000e4c0    00000008     (.cinit..bss.load) [load image, compression = zero_init]
                  0000e4c8    00000008     (.cinit..data:xdc_runtime_Memory_Module__state__V.load) [load image, compression = lzss]
                  0000e4d0    00000007     (.cinit..data:ti_sysbios_family_arm_cc26xx_TimestampProvider_Module__state__V.load) [load image, compression = lzss]
                  0000e4d7    00000007     (.cinit..data:xdc_runtime_Startup_Module__state__V.load) [load image, compression = lzss]
                  0000e4de    00000002     --HOLE-- [fill = 0]
                  0000e4e0    00000060     (__TI_cinit_table)

.init_array 
*          0    00000000    00000000     UNINITIALIZED

.ccfg      0    0001ffa8    00000058     
                  0001ffa8    00000058     ccfg.obj (.ccfg:retain)

.vecs      0    20000000    000000c8     NOLOAD SECTION
                  20000000    000000c8     release_pem3.oem3 (.vecs)

.data:ti_sysbios_knl_Task_Module__state__V 
*          0    20000100    00000044     UNINITIALIZED
                  20000100    00000044     release_pem3.oem3 (.data:ti_sysbios_knl_Task_Module__state__V)

.data:ti_sysbios_family_arm_m3_Hwi_Module__state__V 
*          0    20000144    00000034     UNINITIALIZED
                  20000144    00000034     release_pem3.oem3 (.data:ti_sysbios_family_arm_m3_Hwi_Module__state__V)

.data:ti_sysbios_knl_Clock_Module__state__V 
*          0    20000178    0000002c     UNINITIALIZED
                  20000178    0000002c     release_pem3.oem3 (.data:ti_sysbios_knl_Clock_Module__state__V)

.data:ti_sysbios_BIOS_Module__state__V 
*          0    200001a4    00000024     UNINITIALIZED
                  200001a4    00000024     release_pem3.oem3 (.data:ti_sysbios_BIOS_Module__state__V)

.data:ti_sysbios_knl_Swi_Module__state__V 
*          0    200001c8    0000001c     UNINITIALIZED
                  200001c8    0000001c     release_pem3.oem3 (.data:ti_sysbios_knl_Swi_Module__state__V)

.data:ti_sysbios_family_arm_cc26xx_Timer_Module__state__V 
*          0    200001e4    00000008     UNINITIALIZED
                  200001e4    00000008     release_pem3.oem3 (.data:ti_sysbios_family_arm_cc26xx_Timer_Module__state__V)

.data:ti_sysbios_family_arm_cc26xx_TimestampProvider_Module__state__V 
*          0    200001ec    00000004     UNINITIALIZED
                  200001ec    00000004     release_pem3.oem3 (.data:ti_sysbios_family_arm_cc26xx_TimestampProvider_Module__state__V)

.data:xdc_runtime_Startup_Module__state__V 
*          0    200001f0    00000008     UNINITIALIZED
                  200001f0    00000008     release_pem3.oem3 (.data:xdc_runtime_Startup_Module__state__V)

.data:xdc_runtime_System_Module__state__V 
*          0    200001f8    00000008     UNINITIALIZED
                  200001f8    00000008     release_pem3.oem3 (.data:xdc_runtime_System_Module__state__V)

.data:xdc_runtime_Memory_Module__state__V 
*          0    20000200    00000004     UNINITIALIZED
                  20000200    00000004     release_pem3.oem3 (.data:xdc_runtime_Memory_Module__state__V)

.bss       0    20000208    00001671     UNINITIALIZED
                  20000208    00000400     NodeRadioTask.obj (.bss:nodeRadioTaskStack)
                  20000608    00000400     NodeTask.obj (.bss:nodeTaskStack)
                  20000a08    00000310     rf_multiMode_cc13x0.aem3 : RFCC26XX_multiMode.oem3 (.bss:$O1$$)
                  20000d18    00000200     release_pem3.oem3 (.bss:taskStackSection)
                  20000f18    0000012c     (.common:uartCC26XXObjects)
                  20001044    00000004     SceAdc.obj (.bss)
                  20001048    000000c8     EasyLink.obj (.bss:rfObject)
                  20001110    000000c8     (.common:ti_sysbios_family_arm_m3_Hwi_dispatchTable)
                  200011d8    0000009c     NodeRadioTask.obj (.bss:currentRadioOperation)
                  20001274    00000098     EasyLink.obj (.bss:rxBuffer)
                  2000130c    00000098     EasyLink.obj (.bss:rxPacket$3)
                  200013a4    0000008c     EasyLink.obj (.bss:txBuffer)
                  20001430    00000080     CC1310_LAUNCHXL.obj (.bss:uartStringBuf)
                  200014b0    00000050     (.common:nodeRadioTask)
                  20001500    00000050     (.common:nodeTask)
                  20001550    0000003c     NodeRadioTask.obj (.bss:nodeRadioTaskParams)
                  2000158c    0000003c     NodeTask.obj (.bss:nodeTaskParams)
                  200015c8    00000030     EasyLink.obj (.bss:EasyLink_cmdPropRxAdv)
                  200015f8    00000030     scif_framework.obj (.bss:scifData)
                  20001628    00000028     EasyLink.obj (.bss:EasyLink_cmdPropRadioSetup)
                  20001650    00000024     (.common:fastReportTimeoutClock)
                  20001674    00000020     (.common:uartCC26XXRingBuffer)
                  20001694    0000001c     EasyLink.obj (.bss:EasyLink_cmdPropCs)
                  200016b0    0000001c     NodeTask.obj (.bss)
                  200016cc    0000001c     scif_framework.obj (.bss:hwiCtrlReady)
                  200016e8    0000001c     scif_framework.obj (.bss:hwiTaskAlert)
                  20001704    0000001c     EasyLink.obj (.bss:rfParams)
                  20001720    0000001c     scif_framework.obj (.bss:semCtrlReady)
                  2000173c    0000001c     (.common:radioAccessSem)
                  20001758    0000001c     (.common:radioResultSem)
                  20001774    00000018     EasyLink.obj (.bss)
                  2000178c    00000018     EasyLink.obj (.bss:EasyLink_cmdFs)
                  200017a4    00000018     EasyLink.obj (.bss:EasyLink_cmdPropTx)
                  200017bc    00000014     NodeRadioTask.obj (.bss)
                  200017d0    00000014     driverlib.lib : osc.obj (.bss:oscHfGlobals)
                  200017e4    00000014     (.common:nodeEvent)
                  200017f8    00000014     (.common:radioOperationEvent)
                  2000180c    00000010     EasyLink.obj (.bss:EasyLink_RF_prop)
                  2000181c    0000000c     NodeTask.obj (.bss:buttonPinState)
                  20001828    0000000c     NodeRadioTask.obj (.bss:dmSensorPacket)
                  20001834    0000000c     NodeTask.obj (.bss:ledPinState)
                  20001840    0000000c     EasyLink.obj (.bss:rxStatistics)
                  2000184c    0000000c     (.common:displayUartObject)
                  20001858    00000008     dpl_cc13x0.aem3 : PowerCC26XX_tirtos.oem3 (.bss:$O1$$)
                  20001860    00000008     EasyLink.obj (.bss:dataQueue)
                  20001868    00000008     driverlib.lib : sys_ctrl.obj (.bss:powerQualGlobals)
                  20001870    00000004     (.common:ClockP_tickPeriod)
                  20001874    00000002     drivers_cc13x0.aem3 : UARTCC26XX.oem3 (.bss)
                  20001876    00000002     rf_multiMode_cc13x0.aem3 : RFCC26XX_multiMode.oem3 (.bss)
                  20001878    00000001     (.common:driverlib_release_0_49471)

.priheap   0    20001880    00001000     UNINITIALIZED
                  20001880    00001000     --HOLE--

.data      0    20002880    0000096c     UNINITIALIZED
                  20002880    00000114     drivers_cc13x0.aem3 : PINCC26XX.oem3 (.data:$O1$$)
                  20002994    00000114                         : PowerCC26XX.oem3 (.data:PowerCC26XX_module)
                  20002aa8    00000068     smartrf_settings_predefined.obj (.data:pOverrides_sl_lr)
                  20002b10    00000060     smartrf_settings_predefined.obj (.data:pOverrides_hsm)
                  20002b70    0000005c     smartrf_settings_predefined.obj (.data:pOverrides_lrm)
                  20002bcc    0000005c     smartrf_settings_predefined.obj (.data:pOverrides_ook)
                  20002c28    00000058     smartrf_settings.obj (.data:pOverrides)
                  20002c80    00000058     smartrf_settings_predefined.obj (.data:pOverrides_fsk)
                  20002cd8    0000004c     release_pem3.oem3 (.data:ti_sysbios_knl_Task_Object__table__V)
                  20002d24    00000004     rtsv7M3_T_le_eabi.lib : stkdepth_vars.obj (.data)
                  20002d28    00000048     release_pem3.oem3 (.data:ti_sysbios_family_arm_cc26xx_Timer_Object__table__V)
                  20002d70    00000044     smartrf_settings_predefined.obj (.data)
                  20002db4    00000038     release_pem3.oem3 (.data:ti_sysbios_gates_GateMutex_Object__table__V)
                  20002dec    00000030     smartrf_settings_predefined.obj (.data:RF_cmdPropRxAdv_preDef)
                  20002e1c    00000030     release_pem3.oem3 (.data:ti_sysbios_knl_Swi_Module_State_0_readyQ__A)
                  20002e4c    00000030     release_pem3.oem3 (.data:ti_sysbios_knl_Swi_Object__table__V)
                  20002e7c    00000030     release_pem3.oem3 (.data:ti_sysbios_knl_Task_Module_State_0_readyQ__A)
                  20002eac    00000028     smartrf_settings.obj (.data:RF_cmdPropRadioDivSetup)
                  20002ed4    00000028     smartrf_settings_predefined.obj (.data:RF_cmdPropRadioDivSetup_fsk)
                  20002efc    00000028     smartrf_settings_predefined.obj (.data:RF_cmdPropRadioDivSetup_lrm)
                  20002f24    00000028     smartrf_settings_predefined.obj (.data:RF_cmdPropRadioDivSetup_ook)
                  20002f4c    00000028     smartrf_settings_predefined.obj (.data:RF_cmdPropRadioDivSetup_sl_lr)
                  20002f74    00000024     smartrf_settings_predefined.obj (.data:RF_cmdRxHS)
                  20002f98    00000020     release_pem3.oem3 (.data:ti_sysbios_knl_Clock_Object__table__V)
                  20002fb8    00000020     release_pem3.oem3 (.data:xdc_runtime_Error_IgnoreBlock)
                  20002fd8    0000001c     EasyLink.obj (.data:txTestCmd$4)
                  20002ff4    00000018     smartrf_settings.obj (.data:RF_cmdFs)
                  2000300c    00000018     smartrf_settings_predefined.obj (.data:RF_cmdFs_preDef)
                  20003024    00000018     smartrf_settings.obj (.data:RF_cmdPropTx)
                  2000303c    00000018     smartrf_settings_predefined.obj (.data:RF_cmdPropTx_preDef)
                  20003054    00000018     smartrf_settings_predefined.obj (.data:RF_cmdRadioSetup_hsm)
                  2000306c    00000018     EasyLink.obj (.data:addrFilterTable)
                  20003084    00000018     smartrf_settings_predefined.obj (.data:shapeovr)
                  2000309c    00000018     release_pem3.oem3 (.data:ti_sysbios_family_arm_m3_Hwi_Object__table__V)
                  200030b4    00000018     release_pem3.oem3 (.data:ti_sysbios_heaps_HeapMem_Object__table__V)
                  200030cc    00000014     smartrf_settings_predefined.obj (.data:RF_cmdTxHS)
                  200030e0    00000010     smartrf_settings.obj (.data:RF_prop)
                  200030f0    00000010     smartrf_settings_predefined.obj (.data:RF_prop_fsk)
                  20003100    00000010     smartrf_settings_predefined.obj (.data:RF_prop_hsm)
                  20003110    00000010     smartrf_settings_predefined.obj (.data:RF_prop_lrm)
                  20003120    00000010     smartrf_settings_predefined.obj (.data:RF_prop_ook)
                  20003130    00000010     smartrf_settings_predefined.obj (.data:RF_prop_sl_lr)
                  20003140    0000000f     EasyLink.obj (.data)
                  2000314f    00000001     NodeRadioTask.obj (.data)
                  20003150    0000000c     scif_framework.obj (.data)
                  2000315c    00000008     rtsv7M3_T_le_eabi.lib : _lock.obj (.data:$O1$$)
                  20003164    00000008     NodeTask.obj (.data:buttonPinTable)
                  2000316c    00000008     NodeTask.obj (.data:pinTable)
                  20003174    00000008     release_pem3.oem3 (.data:ti_sysbios_family_arm_m3_Hwi_Module__root__V)
                  2000317c    00000008     release_pem3.oem3 (.data:ti_sysbios_gates_GateHwi_Module__root__V)
                  20003184    00000008     release_pem3.oem3 (.data:ti_sysbios_gates_GateMutex_Module__root__V)
                  2000318c    00000008     release_pem3.oem3 (.data:ti_sysbios_hal_Hwi_Module__root__V)
                  20003194    00000008     release_pem3.oem3 (.data:ti_sysbios_heaps_HeapMem_Module__root__V)
                  2000319c    00000008     release_pem3.oem3 (.data:ti_sysbios_knl_Clock_Module__root__V)
                  200031a4    00000008     release_pem3.oem3 (.data:ti_sysbios_knl_Event_Module__root__V)
                  200031ac    00000008     release_pem3.oem3 (.data:ti_sysbios_knl_Mailbox_Module__root__V)
                  200031b4    00000008     release_pem3.oem3 (.data:ti_sysbios_knl_Queue_Module__root__V)
                  200031bc    00000008     release_pem3.oem3 (.data:ti_sysbios_knl_Semaphore_Module__root__V)
                  200031c4    00000008     release_pem3.oem3 (.data:ti_sysbios_knl_Swi_Module__root__V)
                  200031cc    00000008     release_pem3.oem3 (.data:ti_sysbios_knl_Task_Module__root__V)
                  200031d4    00000008     release_pem3.oem3 (.data:xdc_runtime_System_Module_State_0_atexitHandlers__A)
                  200031dc    00000004     release_pem3.oem3 (.data:ti_sysbios_family_arm_m3_Hwi_Module_State_0_excContext__A)
                  200031e0    00000004     release_pem3.oem3 (.data:ti_sysbios_family_arm_m3_Hwi_Module_State_0_excStack__A)
                  200031e4    00000004     release_pem3.oem3 (.data:ti_sysbios_knl_Task_Module_State_0_idleTask__A)
                  200031e8    00000002     release_pem3.oem3 (.data:ti_sysbios_family_arm_m3_Hwi_Module_State_0_excActive__A)
                  200031ea    00000001     NodeTask.obj (.data)
                  200031eb    00000001     drivers_cc13x0.aem3 : UART.oem3 (.data)

.stack     0    20004c00    00000400     UNINITIALIZED
                  20004c00    00000400     --HOLE--

.bootVecs 
*          0    00000000    00000008     DSECT
                  00000000    00000008     boot.aem3 : boot.oem3 (.bootVecs)

xdc.meta   0    00000000    00000106     COPY SECTION
                  00000000    00000106     release_pem3.oem3 (xdc.meta)

xdc.noload 
*          0    00000000    00000000     COPY SECTION

MODULE SUMMARY

       Module                            code    ro data   rw data
       ------                            ----    -------   -------
    .\
       NodeRadioTask.obj                 1390    0         1429   
       NodeTask.obj                      1074    0         1289   
       CC1310_LAUNCHXL.obj               24      165       472    
       SceAdc.obj                        204     0         4      
       ccfg.obj                          0       88        0      
       rfWsnNode.obj                     26      0         0      
    +--+---------------------------------+-------+---------+---------+
       Total:                            2718    253       3194   
                                                                  
    .\easylink\
       EasyLink.obj                      3206    12        963    
    +--+---------------------------------+-------+---------+---------+
       Total:                            3206    12        963    
                                                                  
    .\sce\
       scif_framework.obj                1486    0         144    
       scif.obj                          188     564       0      
    +--+---------------------------------+-------+---------+---------+
       Total:                            1674    564       144    
                                                                  
    .\smartrf_settings\
       smartrf_settings_predefined.obj   2728    14768     980    
       smartrf_settings.obj              446     2404      192    
    +--+---------------------------------+-------+---------+---------+
       Total:                            3174    17172     1172   
                                                                  
    C:\git\UofACapstone18_grp1_git\tirtos_builds_CC1310_LAUNCHXL_release_ccs\Debug\configPkg\package\cfg\
       release_pem3.oem3                 832     1551      1750   
    +--+---------------------------------+-------+---------+---------+
       Total:                            832     1551      1750   
                                                                  
    C:/ti/simplelink_cc13x0_sdk_1_50_00_08/kernel/tirtos/packages/ti/dpl/lib/dpl_cc13x0.aem3
       PowerCC26XX_tirtos.oem3           296     0         8      
       SemaphoreP_tirtos.oem3            126     0         0      
       ClockP_tirtos.oem3                118     0         4      
       HwiP_tirtos.oem3                  98      0         0      
       SwiP_tirtos.oem3                  96      0         0      
       SystemP_tirtos.oem3               4       0         0      
    +--+---------------------------------+-------+---------+---------+
       Total:                            738     0         12     
                                                                  
    C:/ti/simplelink_cc13x0_sdk_1_50_00_08/source/ti/devices/cc13x0/driverlib/bin/ccs/driverlib.lib
       setup_rom.obj                     1468    0         0      
       sys_ctrl.obj                      760     0         8      
       rfc.obj                           668     24        0      
       osc.obj                           388     0         20     
       setup.obj                         364     0         0      
       chipinfo.obj                      182     0         0      
       aon_rtc.obj                       44      0         0      
       ddi.obj                           44      0         0      
       adi.obj                           40      0         0      
       aon_batmon.obj                    40      0         0      
       cpu.obj                           30      0         0      
       vims.obj                          14      0         0      
       driverlib_release.obj             0       0         1      
    +--+---------------------------------+-------+---------+---------+
       Total:                            4042    24        29     
                                                                  
    C:/ti/simplelink_cc13x0_sdk_1_50_00_08/source/ti/display/lib/display.aem3
       DisplayUart.oem3                  184     32        0      
       Display.oem3                      192     1         0      
    +--+---------------------------------+-------+---------+---------+
       Total:                            376     33        0      
                                                                  
    C:/ti/simplelink_cc13x0_sdk_1_50_00_08/source/ti/drivers/lib/drivers_cc13x0.aem3
       UARTCC26XX.oem3                   2610    104       2      
       PowerCC26XX.oem3                  2124    76        276    
       PINCC26XX.oem3                    1346    0         276    
       PowerCC26XX_calibrateRCOSC.oem3   1380    0         0      
       UART.oem3                         182     36        1      
       RingBuf.oem3                      148     0         0      
       List.oem3                         76      0         0      
    +--+---------------------------------+-------+---------+---------+
       Total:                            7866    216       555    
                                                                  
    C:/ti/simplelink_cc13x0_sdk_1_50_00_08/source/ti/drivers/rf/lib/rf_multiMode_cc13x0.aem3
       RFCC26XX_multiMode.oem3           7594    28        786    
    +--+---------------------------------+-------+---------+---------+
       Total:                            7594    28        786    
                                                                  
    C:\git\UofACapstone18_grp1_git\tirtos_builds_CC1310_LAUNCHXL_release_ccs\src\sysbios\rom_sysbios.aem3
       rom_sysbios.obj                   2505    0         0      
    +--+---------------------------------+-------+---------+---------+
       Total:                            2505    0         0      
                                                                  
    C:\ti\ccsv7\tools\compiler\ti-cgt-arm_16.9.7.LTS\lib\rtsv7M3_T_le_eabi.lib
       ull_div_t2.obj                    500     0         0      
       fd_add_t2.obj                     438     0         0      
       fd_cmp_t2.obj                     268     0         0      
       fd_mul_t2.obj                     252     0         0      
       memcpy_t2.obj                     156     0         0      
       memset_t2.obj                     122     0         0      
       copy_decompress_lzss.obj          104     0         0      
       cpy_tbl.obj                       76      0         0      
       fd_toi_t2.obj                     72      0         0      
       fd_tou_t2.obj                     68      0         0      
       u_divt2.obj                       64      0         0      
       fs_tod_t2.obj                     56      0         0      
       i_tofd_t2.obj                     46      0         0      
       _lock.obj                         20      0         8      
       args_main.obj                     24      0         0      
       ll_mul_t2.obj                     24      0         0      
       strlen.obj                        20      0         0      
       copy_decompress_none.obj          14      0         0      
       copy_zero_init.obj                12      0         0      
       stkdepth_vars.obj                 0       0         4      
       i_div0.obj                        2       0         0      
    +--+---------------------------------+-------+---------+---------+
       Total:                            2338    0         12     
                                                                  
    C:\ti\simplelink_cc13x0_sdk_1_50_00_08\kernel\tirtos\packages\ti\targets\arm\rtsarm\lib\auto_init.aem3
       auto_init.oem3                    160     0         0      
    +--+---------------------------------+-------+---------+---------+
       Total:                            160     0         0      
                                                                  
    C:\ti\simplelink_cc13x0_sdk_1_50_00_08\kernel\tirtos\packages\ti\targets\arm\rtsarm\lib\boot.aem3
       boot.oem3                         68      0         0      
    +--+---------------------------------+-------+---------+---------+
       Total:                            68      0         0      
                                                                  
       Stack:                            0       0         1024   
       Linker Generated:                 504     1108      0      
    +--+---------------------------------+-------+---------+---------+
       Grand Total:                      37795   20961     9641   


LINKER GENERATED COPY TABLES

__TI_cinit_table @ 0000e4e0 records: 12, size/record: 8, table size: 96
	.data: load addr=0000e0e8, load size=0000031e bytes, run addr=20002880, run size=0000096c bytes, compression=lzss
	.data:ti_sysbios_family_arm_m3_Hwi_Module__state__V: load addr=0000e406, load size=00000028 bytes, run addr=20000144, run size=00000034 bytes, compression=lzss
	.data:ti_sysbios_knl_Task_Module__state__V: load addr=0000e42e, load size=00000021 bytes, run addr=20000100, run size=00000044 bytes, compression=lzss
	.data:ti_sysbios_BIOS_Module__state__V: load addr=0000e44f, load size=0000001f bytes, run addr=200001a4, run size=00000024 bytes, compression=lzss
	.data:ti_sysbios_knl_Clock_Module__state__V: load addr=0000e46e, load size=0000001e bytes, run addr=20000178, run size=0000002c bytes, compression=lzss
	.data:ti_sysbios_knl_Swi_Module__state__V: load addr=0000e48c, load size=00000010 bytes, run addr=200001c8, run size=0000001c bytes, compression=lzss
	.data:ti_sysbios_family_arm_cc26xx_Timer_Module__state__V: load addr=0000e4a8, load size=0000000b bytes, run addr=200001e4, run size=00000008 bytes, compression=lzss
	.data:xdc_runtime_System_Module__state__V: load addr=0000e4b3, load size=0000000b bytes, run addr=200001f8, run size=00000008 bytes, compression=lzss
	.bss: load addr=0000e4c0, load size=00000008 bytes, run addr=20000208, run size=00001671 bytes, compression=zero_init
	.data:xdc_runtime_Memory_Module__state__V: load addr=0000e4c8, load size=00000008 bytes, run addr=20000200, run size=00000004 bytes, compression=lzss
	.data:ti_sysbios_family_arm_cc26xx_TimestampProvider_Module__state__V: load addr=0000e4d0, load size=00000007 bytes, run addr=200001ec, run size=00000004 bytes, compression=lzss
	.data:xdc_runtime_Startup_Module__state__V: load addr=0000e4d7, load size=00000007 bytes, run addr=200001f0, run size=00000008 bytes, compression=lzss


LINKER GENERATED HANDLER TABLE

__TI_handler_table @ 0000e49c records: 3, size/record: 4, table size: 12
	index: 0, handler: __TI_decompress_lzss
	index: 1, handler: __TI_decompress_none
	index: 2, handler: __TI_zero_init


FAR CALL TRAMPOLINES

callee name               trampoline name
   callee addr  tramp addr   call addr  call info
--------------  -----------  ---------  ----------------
ti_sysbios_knl_Semaphore_post__E  $Tramp$TT$L$PI$$ti_sysbios_knl_Semaphore_post__E
   1001ac41     0000042c     000002b4   EasyLink.obj (.text:EasyLink_configure)
                             000003a4   EasyLink.obj (.text:EasyLink_configure)
                             000003b4   EasyLink.obj (.text:EasyLink_configure)
                             00000fbc   EasyLink.obj (.text:EasyLink_transmit)
                             0000247a   EasyLink.obj (.text:rxDoneCallback)
                             00004e98   EasyLink.obj (.text:EasyLink_enableRxAddrFilter)
                             000072cc   NodeRadioTask.obj (.text:NodeRadioTask_sendAdcData)
                             00008720   EasyLink.obj (.text:asyncCmdCallback)
                             00008772   scif_framework.obj (.text:osalIndicateCtrlReady)
                             00008b32   NodeRadioTask.obj (.text:returnRadioOperationStatus)
                             000096be   dpl_cc13x0.aem3 : SemaphoreP_tirtos.oem3 (.text:SemaphoreP_post)
ti_sysbios_knl_Semaphore_create  $Tramp$TT$L$PI$$ti_sysbios_knl_Semaphore_create
   1001b5a9     00000434     0000038e   EasyLink.obj (.text:EasyLink_configure)
                             00008700   dpl_cc13x0.aem3 : SemaphoreP_tirtos.oem3 (.text:SemaphoreP_createBinary)
ti_sysbios_family_arm_m3_Hwi_restoreFxn__E  $Tramp$TT$L$PI$$ti_sysbios_family_arm_m3_Hwi_restoreFxn__E
   1001c215     0000082c     00000602   rf_multiMode_cc13x0.aem3 : RFCC26XX_multiMode.oem3 (.text:fsmActiveState)
                             000006a2                            : RFCC26XX_multiMode.oem3 (.text:fsmActiveState)
                             0000076e                            : RFCC26XX_multiMode.oem3 (.text:fsmActiveState)
                             000007d4                            : RFCC26XX_multiMode.oem3 (.text:fsmActiveState)
                             000007f6                            : RFCC26XX_multiMode.oem3 (.text:fsmActiveState)
                             00001b80                            : RFCC26XX_multiMode.oem3 (.text:RF_open)
                             00001c7e                            : RFCC26XX_multiMode.oem3 (.text:RF_open)
                             000027e4                            : RFCC26XX_multiMode.oem3 (.text:RF_scheduleCmd)
                             00002852                            : RFCC26XX_multiMode.oem3 (.text:RF_scheduleCmd)
                             0000288e                            : RFCC26XX_multiMode.oem3 (.text:RF_scheduleCmd)
                             000028b8                            : RFCC26XX_multiMode.oem3 (.text:RF_scheduleCmd)
                             000028d6                            : RFCC26XX_multiMode.oem3 (.text:RF_scheduleCmd)
                             00002910                            : RFCC26XX_multiMode.oem3 (.text:RF_scheduleCmd)
                             00003216   drivers_cc13x0.aem3 : UARTCC26XX.oem3 (.text:UARTCC26XX_open)
                             00003222                       : UARTCC26XX.oem3 (.text:UARTCC26XX_open)
                             000032ac                       : UARTCC26XX.oem3 (.text:UARTCC26XX_open)
                             00003422   rf_multiMode_cc13x0.aem3 : RFCC26XX_multiMode.oem3 (.text:radioOpDoneCb)
                             00003e98   drivers_cc13x0.aem3 : UARTCC26XX.oem3 (.text:UARTCC26XX_read)
                             00003ed8                       : UARTCC26XX.oem3 (.text:UARTCC26XX_read)
                             00003ef4                       : UARTCC26XX.oem3 (.text:UARTCC26XX_read)
                             00003f40                       : UARTCC26XX.oem3 (.text:UARTCC26XX_read)
                             0000452c   rf_multiMode_cc13x0.aem3 : RFCC26XX_multiMode.oem3 (.text:RF_close)
                             0000458c                            : RFCC26XX_multiMode.oem3 (.text:RF_close)
                             000045de   drivers_cc13x0.aem3 : UARTCC26XX.oem3 (.text:UARTCC26XX_write)
                             000045fa                       : UARTCC26XX.oem3 (.text:UARTCC26XX_write)
                             00004698                       : UARTCC26XX.oem3 (.text:UARTCC26XX_write)
                             00004dc0                       : PINCC26XX.oem3 (.text:PINCC26XX_setIoCfg)
                             0000529c   rf_multiMode_cc13x0.aem3 : RFCC26XX_multiMode.oem3 (.text:RF_postCmd)
                             000052d4                            : RFCC26XX_multiMode.oem3 (.text:RF_postCmd)
                             000056b0                            : RFCC26XX_multiMode.oem3 (.text:abortCmd)
                             0000576a   drivers_cc13x0.aem3 : PowerCC26XX.oem3 (.text:Power_releaseDependency)
                             00005994                       : PowerCC26XX.oem3 (.text:Power_setDependency)
                             00005cd2                       : PowerCC26XX.oem3 (.text:switchXOSCHFclockFunc)
                             00005f30   rf_multiMode_cc13x0.aem3 : RFCC26XX_multiMode.oem3 (.text:RF_issueRadioFreeCb)
                             00005f48                            : RFCC26XX_multiMode.oem3 (.text:RF_issueRadioFreeCb)
                             00005f60                            : RFCC26XX_multiMode.oem3 (.text:RF_issueRadioFreeCb)
                             0000605a                            : RFCC26XX_multiMode.oem3 (.text:swiFxnHw)
                             00006086                            : RFCC26XX_multiMode.oem3 (.text:swiFxnHw)
                             000062e2   drivers_cc13x0.aem3 : UARTCC26XX.oem3 (.text:UARTCC26XX_close)
                             00006312                       : UARTCC26XX.oem3 (.text:UARTCC26XX_writeCancel)
                             0000631e                       : UARTCC26XX.oem3 (.text:UARTCC26XX_writeCancel)
                             00006364                       : UARTCC26XX.oem3 (.text:UARTCC26XX_writeCancel)
                             00006440                       : UARTCC26XX.oem3 (.text:writeFinishedDoCallback)
                             00006602   rf_multiMode_cc13x0.aem3 : RFCC26XX_multiMode.oem3 (.text:RF_prepareRadio)
                             00006ae2   drivers_cc13x0.aem3 : PowerCC26XX_calibrateRCOSC.oem3 (.text:PowerCC26XX_initiateCalibration)
                             00006cfc                       : UARTCC26XX.oem3 (.text:UARTCC26XX_readCancel)
                             00006d08                       : UARTCC26XX.oem3 (.text:UARTCC26XX_readCancel)
                             00006d12                       : UARTCC26XX.oem3 (.text:UARTCC26XX_readCancel)
                             00007038                       : UARTCC26XX.oem3 (.text:UARTCC26XX_control)
                             0000760a   rf_multiMode_cc13x0.aem3 : RFCC26XX_multiMode.oem3 (.text:ratChanFree)
                             000077d0                            : RFCC26XX_multiMode.oem3 (.text:RF_getCurrentTime)
                             00007800                            : RFCC26XX_multiMode.oem3 (.text:RF_getCurrentTime)
                             00007a16   drivers_cc13x0.aem3 : PINCC26XX.oem3 (.text:PIN_setOutputEnable)
                             00007a66   rf_multiMode_cc13x0.aem3 : RFCC26XX_multiMode.oem3 (.text:Q_push)
                             00007b32                            : RFCC26XX_multiMode.oem3 (.text:RF_releasePowerConstraint)
                             00007b56   drivers_cc13x0.aem3 : RingBuf.oem3 (.text:RingBuf_put)
                             00007b80                       : RingBuf.oem3 (.text:RingBuf_put)
                             00007d06                       : UART.oem3 (.text:UART_init)
                             00007e82                       : RingBuf.oem3 (.text:RingBuf_get)
                             00007e8a                       : RingBuf.oem3 (.text:RingBuf_get)
                             00007f70                       : PowerCC26XX.oem3 (.text:PowerCC26XX_isStableXOSC_HF)
                             000080ca                       : UARTCC26XX.oem3 (.text:UARTCC26XX_swiIntFxn)
                             0000821a                       : PowerCC26XX.oem3 (.text:Power_releaseConstraint)
                             00008250   rf_multiMode_cc13x0.aem3 : RFCC26XX_multiMode.oem3 (.text:Q_end)
                             0000844c   drivers_cc13x0.aem3 : PowerCC26XX.oem3 (.text:Power_setConstraint)
                             000087a0   scif_framework.obj (.text:osalLockCtrlTaskNbl)
                             000087b0   scif_framework.obj (.text:osalLockCtrlTaskNbl)
                             00008a78   drivers_cc13x0.aem3 : List.oem3 (.text:List_put)
                             00008b14                       : PowerCC26XX.oem3 (.text:Power_unregisterNotify)
                             00008cd8   rf_multiMode_cc13x0.aem3 : RFCC26XX_multiMode.oem3 (.text:RF_setPowerConstraint)
                             00008f5c                            : RFCC26XX_multiMode.oem3 (.text:Q_pop)
                             0000952a   scif_framework.obj (.text:scifOsalLeaveCriticalSection)
ti_sysbios_knl_Semaphore_pend__E  $Tramp$TT$L$PI$$ti_sysbios_knl_Semaphore_pend__E
   1001a001     00000ff8     00000ea0   EasyLink.obj (.text:EasyLink_transmit)
                             00002112   EasyLink.obj (.text:EasyLink_receiveAsync)
                             00002f62   EasyLink.obj (.text:enableTestMode)
                             00004e14   EasyLink.obj (.text:EasyLink_enableRxAddrFilter)
                             00006e7a   EasyLink.obj (.text:EasyLink_init)
                             0000729e   NodeRadioTask.obj (.text:NodeRadioTask_sendAdcData)
                             000072bc   NodeRadioTask.obj (.text:NodeRadioTask_sendAdcData)
                             000092ce   dpl_cc13x0.aem3 : SemaphoreP_tirtos.oem3 (.text:SemaphoreP_pend)
ti_sysbios_knl_Swi_destruct  $Tramp$TT$L$PI$$ti_sysbios_knl_Swi_destruct
   1001c2e5     000096f4     000096c2   dpl_cc13x0.aem3 : SwiP_tirtos.oem3 (.text:SwiP_destruct)
ti_sysbios_knl_Semaphore_destruct  $Tramp$TT$L$PI$$ti_sysbios_knl_Semaphore_destruct
   1001c2dd     000096fc     000096ba   dpl_cc13x0.aem3 : SemaphoreP_tirtos.oem3 (.text:SemaphoreP_destruct)
ti_sysbios_family_arm_m3_Hwi_destruct  $Tramp$TT$L$PI$$ti_sysbios_family_arm_m3_Hwi_destruct
   1001c25d     00009704     00009696   dpl_cc13x0.aem3 : HwiP_tirtos.oem3 (.text:HwiP_destruct)
ti_sysbios_BIOS_getCpuFreq__E  $Tramp$TT$L$PI$$ti_sysbios_BIOS_getCpuFreq__E
   1001bff5     0000970c     00009682   dpl_cc13x0.aem3 : ClockP_tirtos.oem3 (.text:ClockP_getCpuFreq)
ti_sysbios_knl_Clock_destruct  $Tramp$TT$L$PI$$ti_sysbios_knl_Clock_destruct
   1001c2b5     00009714     0000967e   dpl_cc13x0.aem3 : ClockP_tirtos.oem3 (.text:ClockP_destruct)
ti_sysbios_family_arm_m3_Hwi_enableInterrupt__E  $Tramp$TT$L$PI$$ti_sysbios_family_arm_m3_Hwi_enableInterrupt__E
   1001b295     0000971c     000095e6   scif_framework.obj (.text:osalEnableCtrlReadyInt)
                             000095fa   scif_framework.obj (.text:scifOsalEnableTaskAlertInt)
                             0000969e   dpl_cc13x0.aem3 : HwiP_tirtos.oem3 (.text:HwiP_enableInterrupt)
ti_sysbios_family_arm_m3_Hwi_disableInterrupt__E  $Tramp$TT$L$PI$$ti_sysbios_family_arm_m3_Hwi_disableInterrupt__E
   1001b251     00009724     000095dc   scif_framework.obj (.text:osalDisableCtrlReadyInt)
                             000095f0   scif_framework.obj (.text:scifOsalDisableTaskAlertInt)
xdc_runtime_Core_assignParams__I  $Tramp$TT$L$PI$$xdc_runtime_Core_assignParams__I
   1001c5ed     0000972c     00009540   release_pem3.oem3 (.text:ti_sysbios_knl_Event_Params__init__S)
ti_sysbios_knl_Semaphore_delete  $Tramp$TT$L$PI$$ti_sysbios_knl_Semaphore_delete
   1001c2d9     00009734     000094ee   dpl_cc13x0.aem3 : SemaphoreP_tirtos.oem3 (.text:SemaphoreP_delete)
xdc_runtime_Startup_startMods__I  $Tramp$TT$L$PI$$xdc_runtime_Startup_startMods__I
   1001c309     0000973c     000092fa   release_pem3.oem3 (.text:xdc_runtime_Startup_exec__I)
ti_sysbios_knl_Queue_construct  $Tramp$TT$L$PI$$ti_sysbios_knl_Queue_construct
   1001b8f1     00009744     000092a0   rom_sysbios.aem3 : rom_sysbios.obj (.text:ti_sysbios_knl_Event_Instance_init__E)
ti_sysbios_knl_Clock_logTick__E  $Tramp$TT$L$PI$$ti_sysbios_knl_Clock_logTick__E
   1001be63     0000974c     00009282   release_pem3.oem3 (.text:ti_sysbios_knl_Clock_doTick__I)
ti_sysbios_knl_Task_Params__init__S  $Tramp$TT$L$PI$$ti_sysbios_knl_Task_Params__init__S
   1001c1d5     00009754     00009186   NodeRadioTask.obj (.text:ti_sysbios_knl_Task_Params_init)
                             0000919c   NodeTask.obj (.text:ti_sysbios_knl_Task_Params_init)
ti_sysbios_knl_Swi_post__E  $Tramp$TT$L$PI$$ti_sysbios_knl_Swi_post__E
   1001b31d     0000975c     00009050   rom_sysbios.aem3 : rom_sysbios.obj (.text:ti_sysbios_knl_Swi_or__E)
                             0000928a   release_pem3.oem3 (.text:ti_sysbios_knl_Clock_doTick__I)
                             000096d2   dpl_cc13x0.aem3 : SwiP_tirtos.oem3 (.text:SwiP_post)
ti_sysbios_BIOS_RtsGateProxy_leave__E  $Tramp$TT$L$PI$$ti_sysbios_BIOS_RtsGateProxy_leave__E
   1001c249     00009764     00009032   release_pem3.oem3 (.text:ti_sysbios_BIOS_rtsUnlock__I)
ti_sysbios_BIOS_start__E  $Tramp$TT$L$PI$$ti_sysbios_BIOS_start__E
   1001c051     0000976c     00008df2   rfWsnNode.obj (.text:main)
ti_sysbios_knl_Swi_construct  $Tramp$TT$L$PI$$ti_sysbios_knl_Swi_construct
   1001b085     00009774     00008dca   rom_sysbios.aem3 : rom_sysbios.obj (.text:ti_sysbios_knl_Swi_construct2__E)
ti_sysbios_BIOS_RtsGateProxy_enter__E  $Tramp$TT$L$PI$$ti_sysbios_BIOS_RtsGateProxy_enter__E
   1001c245     0000977c     00008b66   release_pem3.oem3 (.text:ti_sysbios_BIOS_rtsLock__I)
xdc_runtime_Core_constructObject__I  $Tramp$TT$L$PI$$xdc_runtime_Core_constructObject__I
   1001c635     00009784     000087fe   release_pem3.oem3 (.text:ti_sysbios_knl_Event_construct)
ti_sysbios_family_arm_m3_Hwi_disableFxn__E  $Tramp$TT$L$PI$$ti_sysbios_family_arm_m3_Hwi_disableFxn__E
   1001c145     0000978c     00008792   scif_framework.obj (.text:osalLockCtrlTaskNbl)
                             0000963a   scif_framework.obj (.text:scifOsalEnterCriticalSection)
                             0000969a   dpl_cc13x0.aem3 : HwiP_tirtos.oem3 (.text:HwiP_disable)
ti_sysbios_knl_Semaphore_Params__init__S  $Tramp$TT$L$PI$$ti_sysbios_knl_Semaphore_Params__init__S
   1001c1bd     00009794     000086c6   dpl_cc13x0.aem3 : SemaphoreP_tirtos.oem3 (.text:SemaphoreP_constructBinary)
                             000086f0                   : SemaphoreP_tirtos.oem3 (.text:SemaphoreP_createBinary)
                             00009144   EasyLink.obj (.text:ti_sysbios_knl_Semaphore_Params_init)
                             0000915a   NodeRadioTask.obj (.text:ti_sysbios_knl_Semaphore_Params_init)
                             00009170   scif_framework.obj (.text:ti_sysbios_knl_Semaphore_Params_init)
ti_sysbios_knl_Task_startup__E  $Tramp$TT$L$PI$$ti_sysbios_knl_Task_startup__E
   1001c305     0000979c     0000856c   release_pem3.oem3 (.text:ti_sysbios_BIOS_startFunc__I)
ti_sysbios_knl_Swi_startup__E  $Tramp$TT$L$PI$$ti_sysbios_knl_Swi_startup__E
   1001c239     000097a4     00008568   release_pem3.oem3 (.text:ti_sysbios_BIOS_startFunc__I)
ti_sysbios_hal_Hwi_startup__E  $Tramp$TT$L$PI$$ti_sysbios_hal_Hwi_startup__E
   1001c289     000097ac     00008564   release_pem3.oem3 (.text:ti_sysbios_BIOS_startFunc__I)
ti_sysbios_family_arm_cc26xx_Timer_startup__E  $Tramp$TT$L$PI$$ti_sysbios_family_arm_cc26xx_Timer_startup__E
   1001b791     000097b4     00008560   release_pem3.oem3 (.text:ti_sysbios_BIOS_startFunc__I)
xdc_runtime_System_atexit__E  $Tramp$TT$L$PI$$xdc_runtime_System_atexit__E
   1001c67d     000097bc     00008558   release_pem3.oem3 (.text:ti_sysbios_BIOS_startFunc__I)
ti_sysbios_BIOS_setThreadType__E  $Tramp$TT$L$PI$$ti_sysbios_BIOS_setThreadType__E
   1001c041     000097c4     00008524   release_pem3.oem3 (.text:ti_sysbios_BIOS_atExitFunc__I)
                             000090d0   release_pem3.oem3 (.text:ti_sysbios_BIOS_exitFunc__I)
ti_sysbios_knl_Swi_disable__E  $Tramp$TT$L$PI$$ti_sysbios_knl_Swi_disable__E
   1001c0d1     000097cc     0000851a   release_pem3.oem3 (.text:ti_sysbios_BIOS_atExitFunc__I)
                             000096c6   dpl_cc13x0.aem3 : SwiP_tirtos.oem3 (.text:SwiP_disable)
ti_sysbios_family_arm_m3_Hwi_construct  $Tramp$TT$L$PI$$ti_sysbios_family_arm_m3_Hwi_construct
   1001af29     000097d4     00008052   rom_sysbios.aem3 : rom_sysbios.obj (.text:ti_sysbios_family_arm_m3_Hwi_construct2__E)
                             000084a6   scif_framework.obj (.text:osalRegisterCtrlReadyInt)
                             000084d6   scif_framework.obj (.text:osalRegisterTaskAlertInt)
ti_sysbios_knl_Swi_Params__init__S  $Tramp$TT$L$PI$$ti_sysbios_knl_Swi_Params__init__S
   1001c1c9     000097dc     00007f9e   dpl_cc13x0.aem3 : SwiP_tirtos.oem3 (.text:SwiP_construct)
ti_sysbios_family_arm_m3_Hwi_Params__init__S  $Tramp$TT$L$PI$$ti_sysbios_family_arm_m3_Hwi_Params__init__S
   1001c139     000097e4     00007e34   dpl_cc13x0.aem3 : HwiP_tirtos.oem3 (.text:HwiP_construct)
                             000090ec   scif_framework.obj (.text:ti_sysbios_family_arm_m3_Hwi_Params_init)
xdc_runtime_System_exit__E  $Tramp$TT$L$PI$$xdc_runtime_System_exit__E
   1001c7cd     000097ec     00007bb4   boot.aem3 : boot.oem3 (.text)
                             000090d6   release_pem3.oem3 (.text:ti_sysbios_BIOS_exitFunc__I)
ti_sysbios_knl_Clock_Params__init__S  $Tramp$TT$L$PI$$ti_sysbios_knl_Clock_Params__init__S
   1001c181     000097f4     000079b4   dpl_cc13x0.aem3 : ClockP_tirtos.oem3 (.text:ClockP_construct)
                             00009102   NodeTask.obj (.text:ti_sysbios_knl_Clock_Params_init)
ti_sysbios_heaps_HeapMem_restore__E  $Tramp$TT$L$PI$$ti_sysbios_heaps_HeapMem_restore__E
   1001c101     000097fc     00007444   rom_sysbios.aem3 : rom_sysbios.obj (.text:ti_sysbios_heaps_HeapMem_initPrimary__I)
ti_sysbios_heaps_HeapMem_Object__get__S  $Tramp$TT$L$PI$$ti_sysbios_heaps_HeapMem_Object__get__S
   1001b86d     00009804     00007414   rom_sysbios.aem3 : rom_sysbios.obj (.text:ti_sysbios_heaps_HeapMem_initPrimary__I)
ti_sysbios_knl_Task_unblockI__E  $Tramp$TT$L$PI$$ti_sysbios_knl_Task_unblockI__E
   1001b9a1     0000980c     00006a30   rom_sysbios.aem3 : rom_sysbios.obj (.text:ti_sysbios_knl_Event_post__E)
                             00008836                    : rom_sysbios.obj (.text:ti_sysbios_knl_Event_pendTimeout__I)
ti_sysbios_knl_Queue_remove__E  $Tramp$TT$L$PI$$ti_sysbios_knl_Queue_remove__E
   1001c11d     00009814     00006a1c   rom_sysbios.aem3 : rom_sysbios.obj (.text:ti_sysbios_knl_Event_post__E)
                             0000882a                    : rom_sysbios.obj (.text:ti_sysbios_knl_Event_pendTimeout__I)
ti_sysbios_knl_Queue_head__E  $Tramp$TT$L$PI$$ti_sysbios_knl_Queue_head__E
   1001c2d1     0000981c     00006a06   rom_sysbios.aem3 : rom_sysbios.obj (.text:ti_sysbios_knl_Event_post__E)
ti_sysbios_knl_Queue_empty__E  $Tramp$TT$L$PI$$ti_sysbios_knl_Queue_empty__E
   1001c10f     00009824     000069f8   rom_sysbios.aem3 : rom_sysbios.obj (.text:ti_sysbios_knl_Event_post__E)
ti_sysbios_knl_Clock_scheduleNextTick__E  $Tramp$TT$L$PI$$ti_sysbios_knl_Clock_scheduleNextTick__E
   1001beb9     0000982c     00006250   rom_sysbios.aem3 : rom_sysbios.obj (.text:ti_sysbios_knl_Clock_workFuncDynamic__E)
ti_sysbios_knl_Clock_walkQueueDynamic__E  $Tramp$TT$L$PI$$ti_sysbios_knl_Clock_walkQueueDynamic__E
   1001a809     00009834     0000621a   rom_sysbios.aem3 : rom_sysbios.obj (.text:ti_sysbios_knl_Clock_workFuncDynamic__E)
                             00006234                    : rom_sysbios.obj (.text:ti_sysbios_knl_Clock_workFuncDynamic__E)
ti_sysbios_knl_Clock_TimerProxy_getCurrentTick__E  $Tramp$TT$L$PI$$ti_sysbios_knl_Clock_TimerProxy_getCurrentTick__E
   1001c091     0000983c     000061ea   rom_sysbios.aem3 : rom_sysbios.obj (.text:ti_sysbios_knl_Clock_workFuncDynamic__E)
                             000087ce                    : rom_sysbios.obj (.text:ti_sysbios_knl_Clock_getTicksUntilInterrupt__E)
ti_sysbios_knl_Clock_construct  $Tramp$TT$L$PI$$ti_sysbios_knl_Clock_construct
   1001b575     00009844     00005d26   NodeTask.obj (.text:NodeTask_init)
                             000079c4   dpl_cc13x0.aem3 : ClockP_tirtos.oem3 (.text:ClockP_construct)
ti_sysbios_knl_Task_construct  $Tramp$TT$L$PI$$ti_sysbios_knl_Task_construct
   1001b125     0000984c     00005a1a   NodeRadioTask.obj (.text:NodeRadioTask_init)
                             00005d56   NodeTask.obj (.text:NodeTask_init)
ti_sysbios_knl_Semaphore_construct  $Tramp$TT$L$PI$$ti_sysbios_knl_Semaphore_construct
   1001b705     00009854     000059be   NodeRadioTask.obj (.text:NodeRadioTask_init)
                             000059d2   NodeRadioTask.obj (.text:NodeRadioTask_init)
                             0000831c   scif_framework.obj (.text:scifOsalInit)
                             000086d6   dpl_cc13x0.aem3 : SemaphoreP_tirtos.oem3 (.text:SemaphoreP_constructBinary)
ti_sysbios_knl_Clock_removeI__E  $Tramp$TT$L$PI$$ti_sysbios_knl_Clock_removeI__E
   1001c2b9     0000985c     00004a34   rom_sysbios.aem3 : rom_sysbios.obj (.text:ti_sysbios_knl_Event_pend__E)
                             00004a54                    : rom_sysbios.obj (.text:ti_sysbios_knl_Event_pend__E)
ti_sysbios_knl_Task_restore__E  $Tramp$TT$L$PI$$ti_sysbios_knl_Task_restore__E
   1001ba45     00009864     00004a24   rom_sysbios.aem3 : rom_sysbios.obj (.text:ti_sysbios_knl_Event_pend__E)
                             00006a3a                    : rom_sysbios.obj (.text:ti_sysbios_knl_Event_post__E)
                             00008af2   dpl_cc13x0.aem3 : PowerCC26XX_tirtos.oem3 (.text:PowerCC26XX_schedulerRestore)
ti_sysbios_knl_Clock_startI__E  $Tramp$TT$L$PI$$ti_sysbios_knl_Clock_startI__E
   1001a715     0000986c     00004a1a   rom_sysbios.aem3 : rom_sysbios.obj (.text:ti_sysbios_knl_Event_pend__E)
ti_sysbios_knl_Task_blockI__E  $Tramp$TT$L$PI$$ti_sysbios_knl_Task_blockI__E
   1001b611     00009874     00004a0a   rom_sysbios.aem3 : rom_sysbios.obj (.text:ti_sysbios_knl_Event_pend__E)
ti_sysbios_knl_Queue_enqueue__E  $Tramp$TT$L$PI$$ti_sysbios_knl_Queue_enqueue__E
   1001c1b1     0000987c     00004a04   rom_sysbios.aem3 : rom_sysbios.obj (.text:ti_sysbios_knl_Event_pend__E)
ti_sysbios_knl_Task_disable__E  $Tramp$TT$L$PI$$ti_sysbios_knl_Task_disable__E
   1001c0f1     00009884     000049f4   rom_sysbios.aem3 : rom_sysbios.obj (.text:ti_sysbios_knl_Event_pend__E)
                             000069fe                    : rom_sysbios.obj (.text:ti_sysbios_knl_Event_post__E)
                             0000851e   release_pem3.oem3 (.text:ti_sysbios_BIOS_atExitFunc__I)
                             00008ac2   dpl_cc13x0.aem3 : PowerCC26XX_tirtos.oem3 (.text:PowerCC26XX_schedulerDisable)
ti_sysbios_knl_Task_self__E  $Tramp$TT$L$PI$$ti_sysbios_knl_Task_self__E
   1001c1e1     0000988c     000049c8   rom_sysbios.aem3 : rom_sysbios.obj (.text:ti_sysbios_knl_Event_pend__E)
ti_sysbios_knl_Clock_addI__E  $Tramp$TT$L$PI$$ti_sysbios_knl_Clock_addI__E
   1001ba1d     00009894     000049a8   rom_sysbios.aem3 : rom_sysbios.obj (.text:ti_sysbios_knl_Event_pend__E)
ti_sysbios_knl_Task_sleep__E  $Tramp$TT$L$PI$$ti_sysbios_knl_Task_sleep__E
   1001a9d9     0000989c     00003028   EasyLink.obj (.text:enableTestMode)
ti_sysbios_knl_Clock_getTicks__E  $Tramp$TT$L$PI$$ti_sysbios_knl_Clock_getTicks__E
   1001b6d5     000098a4     00002b06   NodeRadioTask.obj (.text:nodeRadioTaskFunction)
                             00002b28   NodeRadioTask.obj (.text:nodeRadioTaskFunction)
                             0000887e   rom_sysbios.aem3 : rom_sysbios.obj (.text:ti_sysbios_knl_Clock_getTimeout__E)
ti_sysbios_knl_Clock_start__E  $Tramp$TT$L$PI$$ti_sysbios_knl_Clock_start__E
   1001bfdf     000098ac     000019dc   NodeTask.obj (.text:nodeTaskFunction)
                             00004ac8   dpl_cc13x0.aem3 : PowerCC26XX_tirtos.oem3 (.text:PowerCC26XX_standbyPolicy)
                             000082b4   NodeTask.obj (.text:buttonCallback)
                             00008bb2   rom_sysbios.aem3 : rom_sysbios.obj (.text:ti_sysbios_knl_Clock_stop__E)
                             0000968e   dpl_cc13x0.aem3 : ClockP_tirtos.oem3 (.text:ClockP_start)
ti_sysbios_knl_Clock_setTimeout__E  $Tramp$TT$L$PI$$ti_sysbios_knl_Clock_setTimeout__E
   1001c2bd     000098b4     000019d4   NodeTask.obj (.text:nodeTaskFunction)
                             00004ac2   dpl_cc13x0.aem3 : PowerCC26XX_tirtos.oem3 (.text:PowerCC26XX_standbyPolicy)
                             0000968a                   : ClockP_tirtos.oem3 (.text:ClockP_setTimeout)
xdc_runtime_System_abort__E  $Tramp$TT$L$PI$$xdc_runtime_System_abort__E
   1001c745     000098bc     000019aa   NodeTask.obj (.text:nodeTaskFunction)
                             000019f4   NodeTask.obj (.text:nodeTaskFunction)
                             00001a06   NodeTask.obj (.text:nodeTaskFunction)
                             00002ad6   NodeRadioTask.obj (.text:nodeRadioTaskFunction)
                             00002af4   NodeRadioTask.obj (.text:nodeRadioTaskFunction)
                             00002e7c   NodeRadioTask.obj (.text:sendDmPacket)
                             00002e8c   NodeRadioTask.obj (.text:sendDmPacket)
                             00006890   NodeRadioTask.obj (.text:resendPacket)
                             000068a0   NodeRadioTask.obj (.text:resendPacket)
ti_sysbios_knl_Swi_restore__E  $Tramp$TT$L$PI$$ti_sysbios_knl_Swi_restore__E
   1001b5dd     000098c4     000018dc   drivers_cc13x0.aem3 : PowerCC26XX.oem3 (.text:Power_sleep)
                             000048cc   rf_multiMode_cc13x0.aem3 : RFCC26XX_multiMode.oem3 (.text:RF_pendCmd)
                             00004900                            : RFCC26XX_multiMode.oem3 (.text:RF_pendCmd)
                             00004958                            : RFCC26XX_multiMode.oem3 (.text:RF_pendCmd)
                             0000496c                            : RFCC26XX_multiMode.oem3 (.text:RF_pendCmd)

[63 trampolines]
[206 trampoline calls]


GLOBAL SYMBOLS: SORTED ALPHABETICALLY BY Name 

address   name                                                                      
-------   ----                                                                      
0000e0a0  ADCBuf_count                                                              
0000e0a1  ADC_count                                                                 
0000dec8  BoardGpioInitTable                                                        
00008dfd  CC1310_LAUNCHXL_initGeneral                                               
00009649  ClockP_Params_init                                                        
00007999  ClockP_construct                                                          
0000967f  ClockP_destruct                                                           
00009683  ClockP_getCpuFreq                                                         
1001b6d5  ClockP_getSystemTicks                                                     
00009687  ClockP_getTimeout                                                         
00009303  ClockP_isActive                                                           
0000968b  ClockP_setTimeout                                                         
0000968f  ClockP_start                                                              
00009693  ClockP_stop                                                               
20001870  ClockP_tickPeriod                                                         
00001405  DisplayUartMin_clear                                                      
0000245b  DisplayUartMin_clearLines                                                 
00009085  DisplayUartMin_close                                                      
0000964f  DisplayUartMin_control                                                    
0000df64  DisplayUartMin_fxnTable                                                   
00009655  DisplayUartMin_getType                                                    
000042b3  DisplayUartMin_init                                                       
0000794d  DisplayUartMin_open                                                       
00007ab9  DisplayUartMin_vprintf                                                    
0000e070  Display_config                                                            
0000e0a2  Display_count                                                             
0000e05e  Display_defaultParams                                                     
0000947b  Display_doClear                                                           
000088c1  Display_doInit                                                            
00007235  Display_doOpen                                                            
0000965b  Display_doParamsInit                                                      
00008841  Display_doPrintf                                                          
00008e15  EasyLink_Params_init                                                      
0000003d  EasyLink_configure                                                        
00004ded  EasyLink_enableRxAddrFilter                                               
00006e69  EasyLink_init                                                             
000020ed  EasyLink_receiveAsync                                                     
00005549  EasyLink_setCtrl                                                          
00000e7d  EasyLink_transmit                                                         
00001000  HEAPSIZE                                                                  
00009313  HwiP_Params_init                                                          
00007e19  HwiP_construct                                                            
00009697  HwiP_destruct                                                             
0000969b  HwiP_disable                                                              
0000969f  HwiP_enableInterrupt                                                      
000096a3  HwiP_post                                                                 
1001c215  HwiP_restore                                                              
000096a7  HwiP_setFunc                                                              
0000e0a3  I2C_count                                                                 
00009495  List_empty                                                                
000096ab  List_head                                                                 
000096af  List_next                                                                 
00008a5d  List_put                                                                  
0000909b  List_remove                                                               
000088e9  NOROM_AONBatMonTemperatureGetDegC                                         
000091b9  NOROM_AONRTCCurrent64BitValueGet                                          
00008e2d  NOROM_AONRTCCurrentCompareValueGet                                        
000094a1  NOROM_CPUcpsid                                                            
000094ad  NOROM_CPUcpsie                                                            
00009661  NOROM_CPUdelay                                                            
00008c3d  NOROM_ChipInfo_GetChipFamily                                              
000083c9  NOROM_ChipInfo_GetChipType                                                
00007e95  NOROM_ChipInfo_GetHwRevision                                              
00008e45  NOROM_ChipInfo_GetPackageType                                             
000085d9  NOROM_DDI32RegWrite                                                       
00008605  NOROM_OSCClockSourceGet                                                   
00006f95  NOROM_OSCClockSourceSet                                                   
00006ecd  NOROM_OSCHF_AttemptToSwitchToXosc                                         
0000818d  NOROM_OSCHF_SwitchToRcOscTurnOffXosc                                      
00008e5d  NOROM_OSCHF_TurnOnXosc                                                    
00007ed1  NOROM_OSC_HPOSCRelativeFrequencyOffsetGet                                 
000094b9  NOROM_OSC_HPOSCRelativeFrequencyOffsetToRFCoreFormatConvert               
00008a81  NOROM_RFCAdi3VcoLdoVoltageMode                                            
00008631  NOROM_RFCCPEPatchReset                                                    
00008e75  NOROM_RFCCpeIntGetAndClear                                                
00008961  NOROM_RFCDoorbellSendTo                                                   
00008e8d  NOROM_RFCHWIntGetAndClear                                                 
00004c35  NOROM_RFCOverrideUpdate                                                   
0000514d  NOROM_RFCRfTrimRead                                                       
00009325  NOROM_RFCRfTrimSet                                                        
00007f0d  NOROM_RFCSynthPowerDown                                                   
00005ba9  NOROM_SetupAfterColdResetWakeupFromShutDownCfg1                           
000047a9  NOROM_SetupAfterColdResetWakeupFromShutDownCfg2                           
0000388d  NOROM_SetupAfterColdResetWakeupFromShutDownCfg3                           
00008ea5  NOROM_SetupGetTrimForAdcShModeEn                                          
00008ebd  NOROM_SetupGetTrimForAdcShVbufEn                                          
00006b29  NOROM_SetupGetTrimForAmpcompCtrl                                          
00008ed5  NOROM_SetupGetTrimForAmpcompTh1                                           
00008c59  NOROM_SetupGetTrimForAmpcompTh2                                           
00006b91  NOROM_SetupGetTrimForAnabypassValue1                                      
00008eed  NOROM_SetupGetTrimForDblrLoopFilterResetVoltage                           
0000865d  NOROM_SetupGetTrimForRadcExtCfg                                           
00008f05  NOROM_SetupGetTrimForRcOscLfIBiasTrim                                     
00008c75  NOROM_SetupGetTrimForRcOscLfRtuneCtuneTrim                                
00008aa1  NOROM_SetupGetTrimForXoscHfCtl                                            
00009335  NOROM_SetupGetTrimForXoscHfFastStart                                      
00009345  NOROM_SetupGetTrimForXoscHfIbiastherm                                     
00008f1d  NOROM_SetupGetTrimForXoscLfRegulatorAndCmirrwrRatio                       
000083f9  NOROM_SetupSetAonRtcSubSecInc                                             
00007775  NOROM_SetupSetCacheModeAccordingToCcfgSetting                             
0000679d  NOROM_SetupSetVddrLevel                                                   
00005a59  NOROM_SetupTrimDevice                                                     
00006bf9  NOROM_SysCtrlAdjustRechargeAfterPowerDown                                 
000014f1  NOROM_SysCtrlSetRechargeBeforePowerDown                                   
00006c61  NOROM_SysCtrl_DCDC_VoltageConditionalControl                              
000090b1  NOROM_ThisLibraryIsFor_CC13x0_HwRev20AndLater_HaltIfViolated              
00009435  NOROM_VIMSModeGet                                                         
0000e0a4  NVS_count                                                                 
000059ad  NodeRadioTask_init                                                        
00007291  NodeRadioTask_sendAdcData                                                 
00005cf1  NodeTask_init                                                             
00009355  PINCC26XX_getPinCount                                                     
0000e0ac  PINCC26XX_hwAttrs                                                         
00008689  PINCC26XX_setMux                                                          
00008c01  PIN_close                                                                 
000091cd  PIN_getInputValue                                                         
000091e1  PIN_getOutputValue                                                        
00001f31  PIN_init                                                                  
000060a5  PIN_open                                                                  
000094c5  PIN_registerIntCb                                                         
000074b9  PIN_remove                                                                
000081c1  PIN_setConfig                                                             
000079e1  PIN_setOutputEnable                                                       
00008075  PIN_setOutputValue                                                        
0000e0a5  PWM_count                                                                 
000072ed  PowerCC26XX_RCOSC_clockFunc                                               
00000b71  PowerCC26XX_auxISR                                                        
00007349  PowerCC26XX_calibrate                                                     
0000dfe0  PowerCC26XX_config                                                        
0000292d  PowerCC26XX_doCalibrate                                                   
00006abd  PowerCC26XX_initiateCalibration                                           
00007f49  PowerCC26XX_isStableXOSC_HF                                               
20002994  PowerCC26XX_module                                                        
00008ac1  PowerCC26XX_schedulerDisable                                              
00008ae1  PowerCC26XX_schedulerRestore                                              
00004a71  PowerCC26XX_standbyPolicy                                                 
2000185c  PowerCC26XX_swiKey                                                        
000096b3  PowerCC26XX_switchXOSC_HF                                                 
20001858  PowerCC26XX_taskKey                                                       
000094d1  Power_getConstraintMask                                                   
000094dd  Power_getDependencyCount                                                  
00008c1f  Power_getTransitionLatency                                                
00008f35  Power_idleFunc                                                            
00003f79  Power_init                                                                
00008911  Power_registerNotify                                                      
000081f5  Power_releaseConstraint                                                   
000056c9  Power_releaseDependency                                                   
00008429  Power_setConstraint                                                       
000058f9  Power_setDependency                                                       
00001719  Power_sleep                                                               
00008b01  Power_unregisterNotify                                                    
0000e0b4  RFCC26XX_hwAttrs                                                          
000091f5  RF_Params_init                                                            
00005609  RF_cancelCmd                                                              
000044b5  RF_close                                                                  
20002ff4  RF_cmdFs                                                                  
2000300c  RF_cmdFs_preDef                                                           
20002eac  RF_cmdPropRadioDivSetup                                                   
20002ed4  RF_cmdPropRadioDivSetup_fsk                                               
20002efc  RF_cmdPropRadioDivSetup_lrm                                               
20002f24  RF_cmdPropRadioDivSetup_ook                                               
20002f4c  RF_cmdPropRadioDivSetup_sl_lr                                             
20002dec  RF_cmdPropRxAdv_preDef                                                    
20003024  RF_cmdPropTx                                                              
2000303c  RF_cmdPropTx_preDef                                                       
20003054  RF_cmdRadioSetup_hsm                                                      
20002f74  RF_cmdRxHS                                                                
200030cc  RF_cmdTxHS                                                                
00009601  RF_flushCmd                                                               
000077c5  RF_getCurrentTime                                                         
00001b41  RF_open                                                                   
20002da8  RF_pCmdFs_preDef                                                          
20002d88  RF_pCmdPropRadioDivSetup_fsk                                              
20002d8c  RF_pCmdPropRadioDivSetup_lrm                                              
20002d90  RF_pCmdPropRadioDivSetup_ook                                              
20002d98  RF_pCmdPropRadioDivSetup_sl_lr                                            
20002d9c  RF_pCmdPropRadioSetup_2_4G_fsk                                            
20002db0  RF_pCmdPropRxAdv_preDef                                                   
20002dac  RF_pCmdPropTx_preDef                                                      
20002d94  RF_pCmdRadioSetup_hsm                                                     
20002da4  RF_pCmdRxHS                                                               
20002da0  RF_pCmdTxHS                                                               
20002d84  RF_pProp_2_4G_fsk                                                         
20002d70  RF_pProp_fsk                                                              
20002d7c  RF_pProp_hsm                                                              
20002d74  RF_pProp_lrm                                                              
20002d78  RF_pProp_ook                                                              
20002d80  RF_pProp_sl_lr                                                            
00004899  RF_pendCmd                                                                
00005221  RF_postCmd                                                                
200030e0  RF_prop                                                                   
200030f0  RF_prop_fsk                                                               
20003100  RF_prop_hsm                                                               
20003110  RF_prop_lrm                                                               
20003120  RF_prop_ook                                                               
20003130  RF_prop_sl_lr                                                             
00007b01  RF_releasePowerConstraint                                                 
00008459  RF_runCmd                                                                 
00002799  RF_scheduleCmd                                                            
00008cc9  RF_setPowerConstraint                                                     
00007b89  ResetISR                                                                  
000092bb  RingBuf_construct                                                         
00007e57  RingBuf_get                                                               
00007b45  RingBuf_put                                                               
UNDEFED   SHT$$INIT_ARRAY$$Base                                                     
UNDEFED   SHT$$INIT_ARRAY$$Limit                                                    
0000e0a6  SPI_count                                                                 
00008939  SafeHapiVoid                                                              
00007721  SceAdc_init                                                               
00009209  SceAdc_registerAdcCallback                                                
00008985  SceAdc_setReportInterval                                                  
0000959d  SceAdc_start                                                              
000086b5  SemaphoreP_constructBinary                                                
000086e1  SemaphoreP_createBinary                                                   
000094e9  SemaphoreP_delete                                                         
000096bb  SemaphoreP_destruct                                                       
000092cd  SemaphoreP_pend                                                           
000096bf  SemaphoreP_post                                                           
00009365  SwiP_Params_init                                                          
00007f85  SwiP_construct                                                            
000096c3  SwiP_destruct                                                             
000096c7  SwiP_disable                                                              
000096cb  SwiP_getTrigger                                                           
000096cf  SwiP_or                                                                   
000096d3  SwiP_post                                                                 
1001b5dd  SwiP_restore                                                              
000096d7  SystemP_vsnprintf                                                         
0000626d  UARTCC26XX_close                                                          
00006ff5  UARTCC26XX_control                                                        
0000def4  UARTCC26XX_fxnTable                                                       
000041a1  UARTCC26XX_hwiIntFxn                                                      
00008f65  UARTCC26XX_init                                                           
00003201  UARTCC26XX_open                                                           
00003e5d  UARTCC26XX_read                                                           
00006cc9  UARTCC26XX_readCancel                                                     
00009667  UARTCC26XX_readPolling                                                    
000080ad  UARTCC26XX_swiIntFxn                                                      
000045b1  UARTCC26XX_write                                                          
000062f9  UARTCC26XX_writeCancel                                                    
0000966d  UARTCC26XX_writePolling                                                   
00008f7d  UART_Params_init                                                          
000095a7  UART_close                                                                
0000e088  UART_config                                                               
000095b1  UART_control                                                              
0000e0a7  UART_count                                                                
0000df1c  UART_defaultParams                                                        
00007cd9  UART_init                                                                 
00007d19  UART_open                                                                 
000095bb  UART_write                                                                
0000e0a8  Watchdog_count                                                            
00000000  __ASM__                                                                   
00000080  __ISA__                                                                   
00000092  __PLAT__                                                                  
20005000  __STACK_END                                                               
00000400  __STACK_SIZE                                                              
000000b9  __TARG__                                                                  
0000e4e0  __TI_CINIT_Base                                                           
0000e540  __TI_CINIT_Limit                                                          
0000e49c  __TI_Handler_Table_Base                                                   
0000e4a8  __TI_Handler_Table_Limit                                                  
00005e31  __TI_auto_init                                                            
00006d31  __TI_decompress_lzss                                                      
00009443  __TI_decompress_none                                                      
ffffffff  __TI_pprof_out_hndl                                                       
ffffffff  __TI_prof_data_size                                                       
ffffffff  __TI_prof_data_start                                                      
0000e0e8  __TI_static_base__                                                        
000094f5  __TI_zero_init                                                            
000000de  __TRDR__                                                                  
0000649d  __aeabi_cdcmpeq                                                           
0000649d  __aeabi_cdcmple                                                           
00006523  __aeabi_cdrcmple                                                          
00007a71  __aeabi_d2iz                                                              
00007c11  __aeabi_d2uiz                                                             
000022af  __aeabi_dadd                                                              
000046ad  __aeabi_dmul                                                              
000022a5  __aeabi_dsub                                                              
0000811d  __aeabi_f2d                                                               
000085a9  __aeabi_i2d                                                               
00008dfb  __aeabi_idiv0                                                             
00008fc5  __aeabi_lmul                                                              
000066a9  __aeabi_memclr                                                            
000066a9  __aeabi_memclr4                                                           
000066a9  __aeabi_memclr8                                                           
00005f6d  __aeabi_memcpy                                                            
00005f6d  __aeabi_memcpy4                                                           
00005f6d  __aeabi_memcpy8                                                           
000066ab  __aeabi_memset                                                            
000066ab  __aeabi_memset4                                                           
000066ab  __aeabi_memset8                                                           
00007d59  __aeabi_uidiv                                                             
00007d59  __aeabi_uidivmod                                                          
00001d3d  __aeabi_uldivmod                                                          
ffffffff  __binit__                                                                 
ffffffff  __c_args__                                                                
0001ffa8  __ccfg                                                                    
20002880  __primary_heap_end__                                                      
20001880  __primary_heap_start__                                                    
20004c00  __stack                                                                   
00008fad  _args_main                                                                
00007b89  _c_int00                                                                  
2000315c  _lock                                                                     
0000923f  _nop                                                                      
00009237  _register_lock                                                            
00009231  _register_unlock                                                          
20003160  _unlock                                                                   
ffffffff  binit                                                                     
20003164  buttonPinTable                                                            
00007901  copy_in                                                                   
0000e028  displayUartHWAttrs                                                        
2000184c  displayUartObject                                                         
20001878  driverlib_release_0_49471                                                 
20001650  fastReportTimeoutClock                                                    
00008de1  main                                                                      
20002d24  main_func_sp                                                              
00005f6d  memcpy                                                                    
000066b1  memset                                                                    
200017e4  nodeEvent                                                                 
200014b0  nodeRadioTask                                                             
00009501  nodeRadioTask_getNodeAddr                                                 
20001500  nodeTask                                                                  
20002c80  pOverrides_fsk                                                            
20002b10  pOverrides_hsm                                                            
20002b70  pOverrides_lrm                                                            
20002bcc  pOverrides_ook                                                            
20002aa8  pOverrides_sl_lr                                                          
20002918  pinHandleTable                                                            
20002884  pinLowerBound                                                             
2000316c  pinTable                                                                  
20002880  pinUpperBound                                                             
2000173c  radioAccessSem                                                            
200017f8  radioOperationEvent                                                       
20001758  radioResultSem                                                            
0000ddc4  resourceDB                                                                
000082c5  scifAckAlertEvents                                                        
00008fdd  scifClearAlertIntSource                                                   
0000de98  scifDriverSetup                                                           
00009519  scifGetAlertEvents                                                        
0000696d  scifGetTaskStruct                                                         
000043b5  scifInit                                                                  
00006385  scifInitIo                                                                
000095ed  scifOsalDisableTaskAlertInt                                               
000095f7  scifOsalEnableTaskAlertInt                                                
00009639  scifOsalEnterCriticalSection                                              
000082f9  scifOsalInit                                                              
00009525  scifOsalLeaveCriticalSection                                              
00009259  scifOsalRegisterCtrlReadyCallback                                         
0000926d  scifOsalRegisterTaskAlertCallback                                         
00007671  scifReinitIo                                                              
00007c55  scifStartRtcTicks                                                         
00007d99  scifStartRtcTicksNow                                                      
000092df  scifStartTasksNbl                                                         
000076c9  scifUninitIo                                                              
20003084  shapeovr                                                                  
00009245  strlen                                                                    
200001a4  ti_sysbios_BIOS_Module__state__V                                          
1001bc25  ti_sysbios_BIOS_RtsGateProxy_Handle__label__S                             
1001bc25  ti_sysbios_BIOS_RtsGateProxy_Handle__label__S__mangled__                  
1001bab5  ti_sysbios_BIOS_RtsGateProxy_Object__delete__S                            
1001c175  ti_sysbios_BIOS_RtsGateProxy_Params__init__S                              
1001c175  ti_sysbios_BIOS_RtsGateProxy_Params__init__S__mangled__                   
1001c245  ti_sysbios_BIOS_RtsGateProxy_enter__E                                     
1001c249  ti_sysbios_BIOS_RtsGateProxy_leave__E                                     
1001c271  ti_sysbios_BIOS_RtsGateProxy_query__E                                     
1001c271  ti_sysbios_BIOS_RtsGateProxy_query__E__mangled__                          
00008519  ti_sysbios_BIOS_atExitFunc__I                                             
000090c7  ti_sysbios_BIOS_exitFunc__I                                               
1001c031  ti_sysbios_BIOS_exit__E                                                   
1001bff5  ti_sysbios_BIOS_getCpuFreq__E                                             
000091a3  ti_sysbios_BIOS_linkedWithIncorrectBootLibrary__E                         
00009323  ti_sysbios_BIOS_nullFunc__I                                               
000089f1  ti_sysbios_BIOS_registerRTSLock__I                                        
00008a15  ti_sysbios_BIOS_removeRTSLock__I                                          
00008b61  ti_sysbios_BIOS_rtsLock__I                                                
00009025  ti_sysbios_BIOS_rtsUnlock__I                                              
1001c041  ti_sysbios_BIOS_setThreadType__E                                          
00008549  ti_sysbios_BIOS_startFunc__I                                              
1001c051  ti_sysbios_BIOS_start__E                                                  
00005a59  ti_sysbios_family_arm_cc26xx_Boot_trimDevice                              
00001406  ti_sysbios_family_arm_cc26xx_Timer_Module__id__C                          
1001bb45  ti_sysbios_family_arm_cc26xx_Timer_Module__startupDone__S                 
200001e4  ti_sysbios_family_arm_cc26xx_Timer_Module__state__V                       
1001ba6d  ti_sysbios_family_arm_cc26xx_Timer_Module_startup__E                      
20002d28  ti_sysbios_family_arm_cc26xx_Timer_Object__table__V                       
00008b81  ti_sysbios_family_arm_cc26xx_Timer_dynamicStub__E                         
000096df  ti_sysbios_family_arm_cc26xx_Timer_getCount64__E                          
00008579  ti_sysbios_family_arm_cc26xx_Timer_getCurrentTick__E                      
1001c24d  ti_sysbios_family_arm_cc26xx_Timer_getExpiredTicks__E                     
00008a39  ti_sysbios_family_arm_cc26xx_Timer_getMaxTicks__E                         
1001c251  ti_sysbios_family_arm_cc26xx_Timer_getPeriod__E                           
00008361  ti_sysbios_family_arm_cc26xx_Timer_initDevice__I                          
1001a465  ti_sysbios_family_arm_cc26xx_Timer_periodicStub__E                        
1001b765  ti_sysbios_family_arm_cc26xx_Timer_postInit__I                            
00008395  ti_sysbios_family_arm_cc26xx_Timer_setNextTick__E                         
1001c255  ti_sysbios_family_arm_cc26xx_Timer_setPeriod__E                           
00007dd9  ti_sysbios_family_arm_cc26xx_Timer_setThreshold__I                        
000068f9  ti_sysbios_family_arm_cc26xx_Timer_start__E                               
00001384  ti_sysbios_family_arm_cc26xx_Timer_startupNeeded__C                       
1001b791  ti_sysbios_family_arm_cc26xx_Timer_startup__E                             
200001ec  ti_sysbios_family_arm_cc26xx_TimestampProvider_Module__state__V           
1001bb65  ti_sysbios_family_arm_cc26xx_TimestampProvider_Module_startup__E          
0000946d  ti_sysbios_family_arm_cc26xx_TimestampProvider_get32__E                   
1001b9cd  ti_sysbios_family_arm_cc26xx_TimestampProvider_get64__E                   
1001c12b  ti_sysbios_family_arm_cc26xx_TimestampProvider_getFreq__E                 
00001408  ti_sysbios_family_arm_cc26xx_TimestampProvider_useClockTimer__C           
00001388  ti_sysbios_family_arm_m3_Hwi_E_alreadyDefined__C                          
0000138c  ti_sysbios_family_arm_m3_Hwi_E_hwiLimitExceeded__C                        
1001aed1  ti_sysbios_family_arm_m3_Hwi_Instance_finalize__E                         
1001a3c5  ti_sysbios_family_arm_m3_Hwi_Instance_init__E                             
200031e8  ti_sysbios_family_arm_m3_Hwi_Module_State_0_excActive__A                  
200031dc  ti_sysbios_family_arm_m3_Hwi_Module_State_0_excContext__A                 
200031e0  ti_sysbios_family_arm_m3_Hwi_Module_State_0_excStack__A                   
0000140a  ti_sysbios_family_arm_m3_Hwi_Module__id__C                                
20003174  ti_sysbios_family_arm_m3_Hwi_Module__root__V                              
1001bb85  ti_sysbios_family_arm_m3_Hwi_Module__startupDone__S                       
20000144  ti_sysbios_family_arm_m3_Hwi_Module__state__V                             
1001b1c1  ti_sysbios_family_arm_m3_Hwi_Module_startup__E                            
00001390  ti_sysbios_family_arm_m3_Hwi_NUM_INTERRUPTS__C                            
000011d0  ti_sysbios_family_arm_m3_Hwi_Object__DESC__C                              
00001070  ti_sysbios_family_arm_m3_Hwi_Object__PARAMS__C                            
00001394  ti_sysbios_family_arm_m3_Hwi_Object__count__C                             
1001aab1  ti_sysbios_family_arm_m3_Hwi_Object__create__S                            
1001bba5  ti_sysbios_family_arm_m3_Hwi_Object__delete__S                            
1001be65  ti_sysbios_family_arm_m3_Hwi_Object__destruct__S                          
1001b7bd  ti_sysbios_family_arm_m3_Hwi_Object__get__S                               
00001398  ti_sysbios_family_arm_m3_Hwi_Object__table__C                             
2000309c  ti_sysbios_family_arm_m3_Hwi_Object__table__V                             
1001c139  ti_sysbios_family_arm_m3_Hwi_Params__init__S                              
0000139c  ti_sysbios_family_arm_m3_Hwi_ccr__C                                       
00008da9  ti_sysbios_family_arm_m3_Hwi_clearInterrupt__E                            
1001af29  ti_sysbios_family_arm_m3_Hwi_construct                                    
00008039  ti_sysbios_family_arm_m3_Hwi_construct2__E                                
1001ab15  ti_sysbios_family_arm_m3_Hwi_create                                       
1001c259  ti_sysbios_family_arm_m3_Hwi_delete                                       
1001c25d  ti_sysbios_family_arm_m3_Hwi_destruct                                     
1001c145  ti_sysbios_family_arm_m3_Hwi_disableFxn__E                                
1001b251  ti_sysbios_family_arm_m3_Hwi_disableInterrupt__E                          
1001aa49  ti_sysbios_family_arm_m3_Hwi_dispatchC__I                                 
20001110  ti_sysbios_family_arm_m3_Hwi_dispatchTable                                
1001c899  ti_sysbios_family_arm_m3_Hwi_dispatch__I                                  
1001c1f7  ti_sysbios_family_arm_m3_Hwi_doSwiRestore__I                              
1001c20f  ti_sysbios_family_arm_m3_Hwi_doTaskRestore__I                             
1001c151  ti_sysbios_family_arm_m3_Hwi_enableFxn__E                                 
1001b295  ti_sysbios_family_arm_m3_Hwi_enableInterrupt__E                           
1001c9fd  ti_sysbios_family_arm_m3_Hwi_excHandlerAsm__I                             
000013a0  ti_sysbios_family_arm_m3_Hwi_excHandlerFunc__C                            
1001bbc5  ti_sysbios_family_arm_m3_Hwi_excHandler__I                                
1001b461  ti_sysbios_family_arm_m3_Hwi_getStackInfo__E                              
1001a695  ti_sysbios_family_arm_m3_Hwi_initNVIC__E                                  
1001c9b5  ti_sysbios_family_arm_m3_Hwi_initStacks__E                                
000013a4  ti_sysbios_family_arm_m3_Hwi_nullIsrFunc__C                               
000013a8  ti_sysbios_family_arm_m3_Hwi_numSparseInterrupts__C                       
e000e000  ti_sysbios_family_arm_m3_Hwi_nvic                                         
1001ca3b  ti_sysbios_family_arm_m3_Hwi_pendSV__I                                    
1001c061  ti_sysbios_family_arm_m3_Hwi_plug__E                                      
1001a315  ti_sysbios_family_arm_m3_Hwi_postInit__I                                  
000093e5  ti_sysbios_family_arm_m3_Hwi_post__E                                      
000013ac  ti_sysbios_family_arm_m3_Hwi_priGroup__C                                  
20000000  ti_sysbios_family_arm_m3_Hwi_ramVectors                                   
00000000  ti_sysbios_family_arm_m3_Hwi_resetVectors                                 
1001c215  ti_sysbios_family_arm_m3_Hwi_restoreFxn__E                                
1001ca53  ti_sysbios_family_arm_m3_Hwi_return                                       
00009679  ti_sysbios_family_arm_m3_Hwi_setFunc__E                                   
1001be81  ti_sysbios_family_arm_m3_Hwi_setPriority__E                               
1001c1ff  ti_sysbios_family_arm_m3_Hwi_startup__E                                   
0000e0b8  ti_sysbios_family_arm_m3_Hwi_swiDisable__C                                
0000e0bc  ti_sysbios_family_arm_m3_Hwi_swiRestoreHwi__C                             
1001c009  ti_sysbios_family_arm_m3_Hwi_switchFromBootStack__E                       
1001c261  ti_sysbios_family_arm_m3_TaskSupport_Module__startupDone__S               
1001c969  ti_sysbios_family_arm_m3_TaskSupport_buildTaskStack                       
1001c15d  ti_sysbios_family_arm_m3_TaskSupport_getStackAlignment__E                 
1001ca55  ti_sysbios_family_arm_m3_TaskSupport_glue                                 
000013b0  ti_sysbios_family_arm_m3_TaskSupport_stackAlignment__C                    
1001b499  ti_sysbios_family_arm_m3_TaskSupport_start__E                             
1001ca65  ti_sysbios_family_arm_m3_TaskSupport_swap__E                              
1001ca1d  ti_sysbios_family_xxx_Hwi_switchAndRunFunc                                
1001bbe5  ti_sysbios_gates_GateHwi_Handle__label__S                                 
1001b45f  ti_sysbios_gates_GateHwi_Instance_init__E                                 
0000111c  ti_sysbios_gates_GateHwi_Module__FXNS__C                                  
0000140c  ti_sysbios_gates_GateHwi_Module__id__C                                    
2000317c  ti_sysbios_gates_GateHwi_Module__root__V                                  
000011f0  ti_sysbios_gates_GateHwi_Object__DESC__C                                  
00001330  ti_sysbios_gates_GateHwi_Object__PARAMS__C                                
1001ba91  ti_sysbios_gates_GateHwi_Object__create__S                                
1001bc05  ti_sysbios_gates_GateHwi_Object__delete__S                                
1001c169  ti_sysbios_gates_GateHwi_enter__E                                         
1001c21b  ti_sysbios_gates_GateHwi_leave__E                                         
1001c265  ti_sysbios_gates_GateHwi_query__E                                         
1001bc25  ti_sysbios_gates_GateMutex_Handle__label__S                               
000014d0  ti_sysbios_gates_GateMutex_Instance_State_sem__O                          
1001c071  ti_sysbios_gates_GateMutex_Instance_finalize__E                           
1001be9d  ti_sysbios_gates_GateMutex_Instance_init__E                               
00001140  ti_sysbios_gates_GateMutex_Module__FXNS__C                                
0000140e  ti_sysbios_gates_GateMutex_Module__id__C                                  
20003184  ti_sysbios_gates_GateMutex_Module__root__V                                
00001210  ti_sysbios_gates_GateMutex_Object__DESC__C                                
00001348  ti_sysbios_gates_GateMutex_Object__PARAMS__C                              
1001b645  ti_sysbios_gates_GateMutex_Object__create__S                              
1001bab5  ti_sysbios_gates_GateMutex_Object__delete__S                              
1001bc45  ti_sysbios_gates_GateMutex_Object__destruct__S                            
20002db4  ti_sysbios_gates_GateMutex_Object__table__V                               
1001c175  ti_sysbios_gates_GateMutex_Params__init__S                                
1001b7e9  ti_sysbios_gates_GateMutex_construct                                      
1001b675  ti_sysbios_gates_GateMutex_create                                         
1001c269  ti_sysbios_gates_GateMutex_delete                                         
1001c26d  ti_sysbios_gates_GateMutex_destruct                                       
1001b6a5  ti_sysbios_gates_GateMutex_enter__E                                       
1001bf99  ti_sysbios_gates_GateMutex_leave__E                                       
1001c271  ti_sysbios_gates_GateMutex_query__E                                       
1001c275  ti_sysbios_hal_Hwi_HwiProxy_Module__startupDone__S                        
1001bb85  ti_sysbios_hal_Hwi_HwiProxy_Module__startupDone__S__mangled__             
1001c081  ti_sysbios_hal_Hwi_HwiProxy_Object__create__S                             
1001bba5  ti_sysbios_hal_Hwi_HwiProxy_Object__delete__S                             
1001c139  ti_sysbios_hal_Hwi_HwiProxy_Params__init__S                               
1001c139  ti_sysbios_hal_Hwi_HwiProxy_Params__init__S__mangled__                    
00008da9  ti_sysbios_hal_Hwi_HwiProxy_clearInterrupt__E                             
1001be45  ti_sysbios_hal_Hwi_HwiProxy_create                                        
1001c279  ti_sysbios_hal_Hwi_HwiProxy_delete                                        
1001c27d  ti_sysbios_hal_Hwi_HwiProxy_disableInterrupt__E                           
1001b251  ti_sysbios_hal_Hwi_HwiProxy_disableInterrupt__E__mangled__                
1001c281  ti_sysbios_hal_Hwi_HwiProxy_enableInterrupt__E                            
1001b295  ti_sysbios_hal_Hwi_HwiProxy_enableInterrupt__E__mangled__                 
1001c285  ti_sysbios_hal_Hwi_HwiProxy_getStackInfo__E                               
1001b461  ti_sysbios_hal_Hwi_HwiProxy_getStackInfo__E__mangled__                    
000093e5  ti_sysbios_hal_Hwi_HwiProxy_post__E                                       
1001c289  ti_sysbios_hal_Hwi_HwiProxy_startup__E                                    
1001c1ff  ti_sysbios_hal_Hwi_HwiProxy_startup__E__mangled__                         
1001c28d  ti_sysbios_hal_Hwi_HwiProxy_switchFromBootStack__E                        
1001c009  ti_sysbios_hal_Hwi_HwiProxy_switchFromBootStack__E__mangled__             
1001c1ed  ti_sysbios_hal_Hwi_Instance_finalize__E                                   
1001b9f5  ti_sysbios_hal_Hwi_Instance_init__E                                       
2000318c  ti_sysbios_hal_Hwi_Module__root__V                                        
1001c01d  ti_sysbios_hal_Hwi_Module_startup__E                                      
00001230  ti_sysbios_hal_Hwi_Object__DESC__C                                        
000010a0  ti_sysbios_hal_Hwi_Object__PARAMS__C                                      
1001bc65  ti_sysbios_hal_Hwi_Object__delete__S                                      
00008da9  ti_sysbios_hal_Hwi_clearInterrupt__E                                      
1001ab79  ti_sysbios_hal_Hwi_create                                                 
1001c291  ti_sysbios_hal_Hwi_delete                                                 
1001c27d  ti_sysbios_hal_Hwi_disableInterrupt__E                                    
1001c27d  ti_sysbios_hal_Hwi_disableInterrupt__E                                    
1001c281  ti_sysbios_hal_Hwi_enableInterrupt__E                                     
1001c281  ti_sysbios_hal_Hwi_enableInterrupt__E                                     
1001c285  ti_sysbios_hal_Hwi_getStackInfo__E                                        
1001c285  ti_sysbios_hal_Hwi_getStackInfo__E                                        
1001b815  ti_sysbios_hal_Hwi_initStack                                              
000093e5  ti_sysbios_hal_Hwi_post__E                                                
1001c289  ti_sysbios_hal_Hwi_startup__E                                             
1001c289  ti_sysbios_hal_Hwi_startup__E                                             
1001c295  ti_sysbios_hal_Hwi_switchFromBootStack__E                                 
1001c295  ti_sysbios_hal_Hwi_switchFromBootStack__E                                 
000013b4  ti_sysbios_heaps_HeapMem_E_memory__C                                      
1001bc85  ti_sysbios_heaps_HeapMem_Handle__label__S                                 
1001b4d1  ti_sysbios_heaps_HeapMem_Instance_init__E                                 
1001bc25  ti_sysbios_heaps_HeapMem_Module_GateProxy_Handle__label__S                
1001bc25  ti_sysbios_heaps_HeapMem_Module_GateProxy_Handle__label__S__mangled__     
1001bab5  ti_sysbios_heaps_HeapMem_Module_GateProxy_Object__delete__S               
1001c175  ti_sysbios_heaps_HeapMem_Module_GateProxy_Params__init__S                 
1001c175  ti_sysbios_heaps_HeapMem_Module_GateProxy_Params__init__S__mangled__      
1001c299  ti_sysbios_heaps_HeapMem_Module_GateProxy_enter__E                        
1001c29d  ti_sysbios_heaps_HeapMem_Module_GateProxy_leave__E                        
1001c271  ti_sysbios_heaps_HeapMem_Module_GateProxy_query__E                        
1001c271  ti_sysbios_heaps_HeapMem_Module_GateProxy_query__E__mangled__             
000010cc  ti_sysbios_heaps_HeapMem_Module__FXNS__C                                  
000013b8  ti_sysbios_heaps_HeapMem_Module__gateObj__C                               
00001410  ti_sysbios_heaps_HeapMem_Module__id__C                                    
20003194  ti_sysbios_heaps_HeapMem_Module__root__V                                  
00001250  ti_sysbios_heaps_HeapMem_Object__DESC__C                                  
00001164  ti_sysbios_heaps_HeapMem_Object__PARAMS__C                                
000013bc  ti_sysbios_heaps_HeapMem_Object__count__C                                 
1001b841  ti_sysbios_heaps_HeapMem_Object__create__S                                
1001bca5  ti_sysbios_heaps_HeapMem_Object__delete__S                                
1001b86d  ti_sysbios_heaps_HeapMem_Object__get__S                                   
000013c0  ti_sysbios_heaps_HeapMem_Object__table__C                                 
200030b4  ti_sysbios_heaps_HeapMem_Object__table__V                                 
1001a195  ti_sysbios_heaps_HeapMem_alloc__E                                         
1001a791  ti_sysbios_heaps_HeapMem_free__E                                          
1001b209  ti_sysbios_heaps_HeapMem_getStats__E                                      
00007401  ti_sysbios_heaps_HeapMem_initPrimary__I                                   
1001b541  ti_sysbios_heaps_HeapMem_init__I                                          
1001c2a1  ti_sysbios_heaps_HeapMem_isBlocking__E                                    
0000e0c0  ti_sysbios_heaps_HeapMem_primaryHeapBaseAddr__C                           
0000e0c4  ti_sysbios_heaps_HeapMem_primaryHeapEndAddr__C                            
000013c4  ti_sysbios_heaps_HeapMem_reqAlign__C                                      
1001c101  ti_sysbios_heaps_HeapMem_restore__E                                       
1001bfc9  ti_sysbios_knl_Clock_Instance_finalize__E                                 
1001b509  ti_sysbios_knl_Clock_Instance_init__E                                     
000014d4  ti_sysbios_knl_Clock_Module_State_clockQ__O                               
2000319c  ti_sysbios_knl_Clock_Module__root__V                                      
20000178  ti_sysbios_knl_Clock_Module__state__V                                     
1001bcc5  ti_sysbios_knl_Clock_Module_startup__E                                    
00001270  ti_sysbios_knl_Clock_Object__DESC__C                                      
00001188  ti_sysbios_knl_Clock_Object__PARAMS__C                                    
1001bad9  ti_sysbios_knl_Clock_Object__delete__S                                    
1001bce5  ti_sysbios_knl_Clock_Object__destruct__S                                  
20002f98  ti_sysbios_knl_Clock_Object__table__V                                     
1001c181  ti_sysbios_knl_Clock_Params__init__S                                      
1001c2a5  ti_sysbios_knl_Clock_TimerProxy_Module__startupDone__S                    
1001bb45  ti_sysbios_knl_Clock_TimerProxy_Module__startupDone__S__mangled__         
1001c091  ti_sysbios_knl_Clock_TimerProxy_getCurrentTick__E                         
1001c2a9  ti_sysbios_knl_Clock_TimerProxy_getExpiredTicks__E                        
1001c0a1  ti_sysbios_knl_Clock_TimerProxy_getMaxTicks__E                            
1001c2ad  ti_sysbios_knl_Clock_TimerProxy_getPeriod__E                              
1001c0b1  ti_sysbios_knl_Clock_TimerProxy_setNextTick__E                            
1001b791  ti_sysbios_knl_Clock_TimerProxy_startup__E                                
1001b791  ti_sysbios_knl_Clock_TimerProxy_startup__E__mangled__                     
1001ba1d  ti_sysbios_knl_Clock_addI__E                                              
1001b575  ti_sysbios_knl_Clock_construct                                            
1001b3e9  ti_sysbios_knl_Clock_create                                               
1001c2b1  ti_sysbios_knl_Clock_delete                                               
1001c2b5  ti_sysbios_knl_Clock_destruct                                             
00009281  ti_sysbios_knl_Clock_doTick__I                                            
000087bd  ti_sysbios_knl_Clock_getTicksUntilInterrupt__E                            
1001b6d5  ti_sysbios_knl_Clock_getTicks__E                                          
0000886b  ti_sysbios_knl_Clock_getTimeout__E                                        
1001c18d  ti_sysbios_knl_Clock_getTimerHandle__E                                    
000096e3  ti_sysbios_knl_Clock_isActive__E                                          
1001be63  ti_sysbios_knl_Clock_logTick__E                                           
1001c2b9  ti_sysbios_knl_Clock_removeI__E                                           
1001beb9  ti_sysbios_knl_Clock_scheduleNextTick__E                                  
000013c8  ti_sysbios_knl_Clock_serviceMargin__C                                     
1001c2bd  ti_sysbios_knl_Clock_setTimeout__E                                        
1001a715  ti_sysbios_knl_Clock_startI__E                                            
1001bfdf  ti_sysbios_knl_Clock_start__E                                             
00008ba1  ti_sysbios_knl_Clock_stop__E                                              
00001414  ti_sysbios_knl_Clock_tickMode__C                                          
0000e0c8  ti_sysbios_knl_Clock_tickPeriod__C                                        
0000e0cc  ti_sysbios_knl_Clock_triggerClock__C                                      
00009487  ti_sysbios_knl_Clock_triggerFunc__I                                       
1001a809  ti_sysbios_knl_Clock_walkQueueDynamic__E                                  
000061d5  ti_sysbios_knl_Clock_workFuncDynamic__E                                   
1001a881  ti_sysbios_knl_Clock_workFunc__E                                          
0000e0d0  ti_sysbios_knl_Event_Instance_State_pendQ__O                              
00009295  ti_sysbios_knl_Event_Instance_init__E                                     
200031a4  ti_sysbios_knl_Event_Module__root__V                                      
0000df84  ti_sysbios_knl_Event_Object__DESC__C                                      
0000e010  ti_sysbios_knl_Event_Object__PARAMS__C                                    
0000953d  ti_sysbios_knl_Event_Params__init__S                                      
00008bc1  ti_sysbios_knl_Event_checkEvents__I                                       
000087e9  ti_sysbios_knl_Event_construct                                            
00008815  ti_sysbios_knl_Event_pendTimeout__I                                       
00004989  ti_sysbios_knl_Event_pend__E                                              
000069dd  ti_sysbios_knl_Event_post__E                                              
0000e0d4  ti_sysbios_knl_Idle_funcList__A                                           
00001378  ti_sysbios_knl_Idle_funcList__C                                           
1001c207  ti_sysbios_knl_Idle_loop__E                                               
1001bd05  ti_sysbios_knl_Idle_run__E                                                
000014d8  ti_sysbios_knl_Mailbox_Instance_State_dataQue__O                          
000014dc  ti_sysbios_knl_Mailbox_Instance_State_dataSem__O                          
000014e0  ti_sysbios_knl_Mailbox_Instance_State_freeQue__O                          
000014e4  ti_sysbios_knl_Mailbox_Instance_State_freeSem__O                          
1001a8f9  ti_sysbios_knl_Mailbox_Instance_finalize__E                               
1001a0cd  ti_sysbios_knl_Mailbox_Instance_init__E                                   
200031ac  ti_sysbios_knl_Mailbox_Module__root__V                                    
1001b2d9  ti_sysbios_knl_Mailbox_Module_startup__E                                  
00001290  ti_sysbios_knl_Mailbox_Object__DESC__C                                    
0000103c  ti_sysbios_knl_Mailbox_Object__PARAMS__C                                  
000013cc  ti_sysbios_knl_Mailbox_Object__count__C                                   
1001bd25  ti_sysbios_knl_Mailbox_Object__delete__S                                  
1001bed5  ti_sysbios_knl_Mailbox_Object__destruct__S                                
1001b899  ti_sysbios_knl_Mailbox_Object__get__S                                     
000013d0  ti_sysbios_knl_Mailbox_Object__table__C                                   
1001c199  ti_sysbios_knl_Mailbox_Params__init__S                                    
1001af81  ti_sysbios_knl_Mailbox_construct                                          
1001abdd  ti_sysbios_knl_Mailbox_create                                             
1001c2c1  ti_sysbios_knl_Mailbox_delete                                             
1001c2c5  ti_sysbios_knl_Mailbox_destruct                                           
000013d4  ti_sysbios_knl_Mailbox_maxTypeAlign__C                                    
1001a969  ti_sysbios_knl_Mailbox_pend__E                                            
1001b8c5  ti_sysbios_knl_Mailbox_postInit__I                                        
1001a58d  ti_sysbios_knl_Mailbox_post__E                                            
1001c227  ti_sysbios_knl_Queue_Instance_init__E                                     
200031b4  ti_sysbios_knl_Queue_Module__root__V                                      
000012b0  ti_sysbios_knl_Queue_Object__DESC__C                                      
00001360  ti_sysbios_knl_Queue_Object__PARAMS__C                                    
000013d8  ti_sysbios_knl_Queue_Object__count__C                                     
1001bd45  ti_sysbios_knl_Queue_Object__delete__S                                    
1001bef1  ti_sysbios_knl_Queue_Object__destruct__S                                  
1001bd65  ti_sysbios_knl_Queue_Object__get__S                                       
000013dc  ti_sysbios_knl_Queue_Object__table__C                                     
1001b8f1  ti_sysbios_knl_Queue_construct                                            
1001b91d  ti_sysbios_knl_Queue_create                                               
1001c2c9  ti_sysbios_knl_Queue_delete                                               
1001c1a5  ti_sysbios_knl_Queue_dequeue__E                                           
1001c2cd  ti_sysbios_knl_Queue_destruct                                             
1001c22d  ti_sysbios_knl_Queue_elemClear__E                                         
1001c10f  ti_sysbios_knl_Queue_empty__E                                             
1001c1b1  ti_sysbios_knl_Queue_enqueue__E                                           
1001bf0d  ti_sysbios_knl_Queue_get__E                                               
1001c2d1  ti_sysbios_knl_Queue_head__E                                              
1001c2d5  ti_sysbios_knl_Queue_next__E                                              
1001bf29  ti_sysbios_knl_Queue_put__E                                               
1001c11d  ti_sysbios_knl_Queue_remove__E                                            
000014e8  ti_sysbios_knl_Semaphore_Instance_State_pendQ__O                          
1001c0c1  ti_sysbios_knl_Semaphore_Instance_finalize__E                             
1001bafd  ti_sysbios_knl_Semaphore_Instance_init__E                                 
200031bc  ti_sysbios_knl_Semaphore_Module__root__V                                  
000012d0  ti_sysbios_knl_Semaphore_Object__DESC__C                                  
000011ac  ti_sysbios_knl_Semaphore_Object__PARAMS__C                                
1001bb21  ti_sysbios_knl_Semaphore_Object__delete__S                                
1001bd85  ti_sysbios_knl_Semaphore_Object__destruct__S                              
1001c1bd  ti_sysbios_knl_Semaphore_Params__init__S                                  
1001b705  ti_sysbios_knl_Semaphore_construct                                        
1001b5a9  ti_sysbios_knl_Semaphore_create                                           
1001c2d9  ti_sysbios_knl_Semaphore_delete                                           
1001c2dd  ti_sysbios_knl_Semaphore_destruct                                         
1001b949  ti_sysbios_knl_Semaphore_pendTimeout__I                                   
1001a001  ti_sysbios_knl_Semaphore_pend__E                                          
1001ac41  ti_sysbios_knl_Semaphore_post__E                                          
1001bf97  ti_sysbios_knl_Swi_Instance_finalize__E                                   
1001aca5  ti_sysbios_knl_Swi_Instance_init__E                                       
20002e1c  ti_sysbios_knl_Swi_Module_State_0_readyQ__A                               
200031c4  ti_sysbios_knl_Swi_Module__root__V                                        
200001c8  ti_sysbios_knl_Swi_Module__state__V                                       
1001c233  ti_sysbios_knl_Swi_Module_startup__E                                      
000012f0  ti_sysbios_knl_Swi_Object__DESC__C                                        
000010f4  ti_sysbios_knl_Swi_Object__PARAMS__C                                      
000013e0  ti_sysbios_knl_Swi_Object__count__C                                       
1001bda5  ti_sysbios_knl_Swi_Object__delete__S                                      
1001bf45  ti_sysbios_knl_Swi_Object__destruct__S                                    
1001b975  ti_sysbios_knl_Swi_Object__get__S                                         
000013e4  ti_sysbios_knl_Swi_Object__table__C                                       
20002e4c  ti_sysbios_knl_Swi_Object__table__V                                       
1001c1c9  ti_sysbios_knl_Swi_Params__init__S                                        
1001b085  ti_sysbios_knl_Swi_construct                                              
00008dc5  ti_sysbios_knl_Swi_construct2__E                                          
1001ad05  ti_sysbios_knl_Swi_create                                                 
1001c2e1  ti_sysbios_knl_Swi_delete                                                 
1001c2e5  ti_sysbios_knl_Swi_destruct                                               
1001c0d1  ti_sysbios_knl_Swi_disable__E                                             
1001c0e1  ti_sysbios_knl_Swi_enabled__E                                             
00009579  ti_sysbios_knl_Swi_getTrigger__E                                          
000013e8  ti_sysbios_knl_Swi_numPriorities__C                                       
0000903d  ti_sysbios_knl_Swi_or__E                                                  
1001c2e9  ti_sysbios_knl_Swi_postInit__I                                            
1001b31d  ti_sysbios_knl_Swi_post__E                                                
1001ad61  ti_sysbios_knl_Swi_restoreHwi__E                                          
1001b5dd  ti_sysbios_knl_Swi_restore__E                                             
1001b0d5  ti_sysbios_knl_Swi_runLoop__I                                             
1001afd9  ti_sysbios_knl_Swi_run__I                                                 
1001b031  ti_sysbios_knl_Swi_schedule__I                                            
1001c239  ti_sysbios_knl_Swi_startup__E                                             
20000d18  ti_sysbios_knl_Task_Instance_State_0_stack__A                             
1001a4f9  ti_sysbios_knl_Task_Instance_finalize__E                                  
1001a259  ti_sysbios_knl_Task_Instance_init__E                                      
200031e4  ti_sysbios_knl_Task_Module_State_0_idleTask__A                            
20002e7c  ti_sysbios_knl_Task_Module_State_0_readyQ__A                              
000014ec  ti_sysbios_knl_Task_Module_State_inactiveQ__O                             
200031cc  ti_sysbios_knl_Task_Module__root__V                                       
20000100  ti_sysbios_knl_Task_Module__state__V                                      
1001adbd  ti_sysbios_knl_Task_Module_startup__E                                     
00001310  ti_sysbios_knl_Task_Object__DESC__C                                       
00001000  ti_sysbios_knl_Task_Object__PARAMS__C                                     
000013ec  ti_sysbios_knl_Task_Object__count__C                                      
1001bdc5  ti_sysbios_knl_Task_Object__delete__S                                     
1001bf61  ti_sysbios_knl_Task_Object__destruct__S                                   
1001bde5  ti_sysbios_knl_Task_Object__get__S                                        
000013f0  ti_sysbios_knl_Task_Object__table__C                                      
20002cd8  ti_sysbios_knl_Task_Object__table__V                                      
1001c1d5  ti_sysbios_knl_Task_Params__init__S                                       
1001c2ed  ti_sysbios_knl_Task_SupportProxy_Module__startupDone__S                   
1001c261  ti_sysbios_knl_Task_SupportProxy_Module__startupDone__S__mangled__        
1001c2f1  ti_sysbios_knl_Task_SupportProxy_getStackAlignment__E                     
1001c15d  ti_sysbios_knl_Task_SupportProxy_getStackAlignment__E__mangled__          
1001c2f5  ti_sysbios_knl_Task_SupportProxy_start__E                                 
1001b499  ti_sysbios_knl_Task_SupportProxy_start__E__mangled__                      
1001c2f9  ti_sysbios_knl_Task_SupportProxy_swap__E                                  
1001ca65  ti_sysbios_knl_Task_SupportProxy_swap__E__mangled__                       
000013f4  ti_sysbios_knl_Task_allBlockedFunc__C                                     
1001b361  ti_sysbios_knl_Task_allBlockedFunction__I                                 
1001b611  ti_sysbios_knl_Task_blockI__E                                             
1001b125  ti_sysbios_knl_Task_construct                                             
1001ae19  ti_sysbios_knl_Task_create                                                
000013f8  ti_sysbios_knl_Task_defaultStackHeap__C                                   
000013fc  ti_sysbios_knl_Task_defaultStackSize__C                                   
1001c2fd  ti_sysbios_knl_Task_delete                                                
1001c301  ti_sysbios_knl_Task_destruct                                              
1001c0f1  ti_sysbios_knl_Task_disable__E                                            
1001c23f  ti_sysbios_knl_Task_enable__E                                             
1001be05  ti_sysbios_knl_Task_enter__I                                              
1001b425  ti_sysbios_knl_Task_exit__E                                               
00001412  ti_sysbios_knl_Task_initStackFlag__C                                      
00001400  ti_sysbios_knl_Task_numConstructedTasks__C                                
1001a611  ti_sysbios_knl_Task_postInit__I                                           
1001b735  ti_sysbios_knl_Task_processVitalTaskFlag__I                               
1001be25  ti_sysbios_knl_Task_restoreHwi__E                                         
1001ba45  ti_sysbios_knl_Task_restore__E                                            
1001b175  ti_sysbios_knl_Task_schedule__I                                           
1001c1e1  ti_sysbios_knl_Task_self__E                                               
1001bf7d  ti_sysbios_knl_Task_sleepTimeout__I                                       
1001a9d9  ti_sysbios_knl_Task_sleep__E                                              
1001ae75  ti_sysbios_knl_Task_startCore__E                                          
1001c305  ti_sysbios_knl_Task_startup__E                                            
1001ca6d  ti_sysbios_knl_Task_swapReturn                                            
1001b9a1  ti_sysbios_knl_Task_unblockI__E                                           
1001bfb1  ti_sysbios_knl_Task_unblock__E                                            
1001b3a5  ti_sysbios_knl_Task_yield__E                                              
00001494  ti_sysbios_rom_ROM_AONRTCChannelEnable                                    
00001498  ti_sysbios_rom_ROM_AONRTCCompareValueSet                                  
0000149c  ti_sysbios_rom_ROM_AONRTCCurrentCompareValueGet                           
000014a0  ti_sysbios_rom_ROM_AONRTCEventClear                                       
000014a4  ti_sysbios_rom_ROM_ti_sysbios_family_arm_cc26xx_Timer_getCount64__E       
000014a8  ti_sysbios_rom_ROM_ti_sysbios_family_arm_cc26xx_Timer_getCurrentTick__E   
000014ac  ti_sysbios_rom_ROM_ti_sysbios_family_arm_cc26xx_Timer_getMaxTicks__E      
000014b0  ti_sysbios_rom_ROM_ti_sysbios_family_arm_cc26xx_Timer_initDevice__I       
000014b4  ti_sysbios_rom_ROM_ti_sysbios_family_arm_cc26xx_Timer_setNextTick__E      
000014b8  ti_sysbios_rom_ROM_ti_sysbios_family_arm_cc26xx_Timer_setThreshold__I     
000014bc  ti_sysbios_rom_ROM_ti_sysbios_family_arm_cc26xx_Timer_start__E            
000014c0  ti_sysbios_rom_ROM_ti_sysbios_family_arm_cc26xx_TimestampProvider_get32__E
000014c4  ti_sysbios_rom_ROM_xdc_runtime_Startup_getState__I                        
000014c8  ti_sysbios_rom_ROM_xdc_runtime_System_SupportProxy_abort__E               
000014cc  ti_sysbios_rom_ROM_xdc_runtime_System_SupportProxy_exit__E                
000096eb  ti_sysbios_rom_cortexm_cc13xx_CC13xx_badRomRevision__E                    
00009055  ti_sysbios_rom_cortexm_cc13xx_CC13xx_checkRevision__E                     
1001ca97  ti_sysbios_rom_cortexm_cc13xx_CC13xx_getRevision__E                       
0000dfa4  uartCC26XXHWAttrs                                                         
20000f18  uartCC26XXObjects                                                         
20001674  uartCC26XXRingBuffer                                                      
00001428  xdc_runtime_Assert_E_assertFailed__C                                      
1001c5a5  xdc_runtime_Assert_raise__I                                               
1001c6e9  xdc_runtime_Core_assignLabel__I                                           
1001c5ed  xdc_runtime_Core_assignParams__I                                          
1001c635  xdc_runtime_Core_constructObject__I                                       
1001c401  xdc_runtime_Core_createObject__I                                          
1001c4f5  xdc_runtime_Core_deleteObject__I                                          
1001c79d  xdc_runtime_Core_destructObject__I                                        
0000142c  xdc_runtime_Error_E_memory__C                                             
20002fb8  xdc_runtime_Error_IgnoreBlock                                             
1001c7b5  xdc_runtime_Error_check__E                                                
0000906d  xdc_runtime_Error_init__E                                                 
00001430  xdc_runtime_Error_policyFxn__C                                            
00008be1  xdc_runtime_Error_policyMin__E                                            
1001c483  xdc_runtime_Error_policySpin__E                                           
00001490  xdc_runtime_Error_policy__C                                               
1001c765  xdc_runtime_Error_raiseX__E                                               
1001c881  xdc_runtime_Gate_enterSystem__E                                           
1001c875  xdc_runtime_Gate_leaveSystem__E                                           
00001434  xdc_runtime_IGateProvider_Interface__BASE__C                              
00001438  xdc_runtime_IHeap_Interface__BASE__C                                      
0000143c  xdc_runtime_IModule_Interface__BASE__C                                    
1001bbe5  xdc_runtime_Main_Module_GateProxy_Handle__label__S                        
1001c265  xdc_runtime_Main_Module_GateProxy_query__E                                
00001440  xdc_runtime_Main_Module__diagsEnabled__C                                  
00001444  xdc_runtime_Main_Module__diagsIncluded__C                                 
00001448  xdc_runtime_Main_Module__diagsMask__C                                     
00001488  xdc_runtime_Main_Module__id__C                                            
1001bc85  xdc_runtime_Memory_HeapProxy_Handle__label__S                             
1001bc85  xdc_runtime_Memory_HeapProxy_Handle__label__S__mangled__                  
1001bca5  xdc_runtime_Memory_HeapProxy_Object__delete__S                            
1001c885  xdc_runtime_Memory_HeapProxy_alloc__E                                     
1001c889  xdc_runtime_Memory_HeapProxy_free__E                                      
0000148a  xdc_runtime_Memory_Module__id__C                                          
20000200  xdc_runtime_Memory_Module__state__V                                       
1001c485  xdc_runtime_Memory_alloc__E                                               
1001c849  xdc_runtime_Memory_calloc__E                                              
0000144c  xdc_runtime_Memory_defaultHeapInstance__C                                 
1001c7fd  xdc_runtime_Memory_free__E                                                
1001c855  xdc_runtime_Memory_getMaxDefaultTypeAlign__E                              
1001c781  xdc_runtime_Memory_valloc__E                                              
200001f0  xdc_runtime_Startup_Module__state__V                                      
00000001  xdc_runtime_Startup__EXECFXN__C                                           
00000001  xdc_runtime_Startup__RESETFXN__C                                          
00001450  xdc_runtime_Startup_execImpl__C                                           
1001c555  xdc_runtime_Startup_exec__E                                               
000092f1  xdc_runtime_Startup_exec__I                                               
0000e094  xdc_runtime_Startup_firstFxns__A                                          
00001418  xdc_runtime_Startup_firstFxns__C                                          
0000745d  xdc_runtime_Startup_getState__I                                           
00001420  xdc_runtime_Startup_lastFxns__C                                           
00001454  xdc_runtime_Startup_maxPasses__C                                          
00009585  xdc_runtime_Startup_reset__I                                              
00009591  xdc_runtime_Startup_rtsDone__E                                            
0000e03c  xdc_runtime_Startup_sfxnRts__A                                            
00001458  xdc_runtime_Startup_sfxnRts__C                                            
0000df40  xdc_runtime_Startup_sfxnTab__A                                            
0000145c  xdc_runtime_Startup_sfxnTab__C                                            
00001460  xdc_runtime_Startup_startModsFxn__C                                       
1001c309  xdc_runtime_Startup_startMods__I                                          
00001464  xdc_runtime_SysCallback_abortFxn__C                                       
1001c80d  xdc_runtime_SysCallback_abort__E                                          
000096ed  xdc_runtime_SysCallback_defaultAbort                                      
000096ef  xdc_runtime_SysCallback_defaultExit                                       
000096f1  xdc_runtime_SysCallback_defaultPutch                                      
000096e7  xdc_runtime_SysCallback_defaultReady                                      
00001468  xdc_runtime_SysCallback_exitFxn__C                                        
1001c81d  xdc_runtime_SysCallback_exit__E                                           
0000e0d8  xdc_runtime_SysCallback_putchFxn__C                                       
00009405  xdc_runtime_SysCallback_putch__E                                          
0000e0dc  xdc_runtime_SysCallback_readyFxn__C                                       
00009415  xdc_runtime_SysCallback_ready__E                                          
1001bbe5  xdc_runtime_System_Module_GateProxy_Handle__label__S                      
1001bbe5  xdc_runtime_System_Module_GateProxy_Handle__label__S__mangled__           
1001bc05  xdc_runtime_System_Module_GateProxy_Object__delete__S                     
1001c88d  xdc_runtime_System_Module_GateProxy_enter__E                              
1001c891  xdc_runtime_System_Module_GateProxy_leave__E                              
1001c265  xdc_runtime_System_Module_GateProxy_query__E                              
1001c265  xdc_runtime_System_Module_GateProxy_query__E__mangled__                   
200031d4  xdc_runtime_System_Module_State_0_atexitHandlers__A                       
200001f8  xdc_runtime_System_Module__state__V                                       
1001c87b  xdc_runtime_System_Module_startup__E                                      
1001c80d  xdc_runtime_System_SupportProxy_abort__E                                  
1001c81d  xdc_runtime_System_SupportProxy_exit__E                                   
00009405  xdc_runtime_System_SupportProxy_putch__E                                  
00009415  xdc_runtime_System_SupportProxy_ready__E                                  
0000146c  xdc_runtime_System_abortFxn__C                                            
1001c895  xdc_runtime_System_abortSpin__E                                           
1001c745  xdc_runtime_System_abort__E                                               
1001c67d  xdc_runtime_System_atexit__E                                              
00000835  xdc_runtime_System_doPrint__I                                             
00001470  xdc_runtime_System_exitFxn__C                                             
1001c897  xdc_runtime_System_exitSpin__E                                            
1001c7cd  xdc_runtime_System_exit__E                                                
0000e0e0  xdc_runtime_System_extendFxn__C                                           
00006a4d  xdc_runtime_System_formatNum__I                                           
00001474  xdc_runtime_System_maxAtexitHandlers__C                                   
00003099  xdc_runtime_System_printfExtend__I                                        
1001c6b5  xdc_runtime_System_processAtExit__E                                       
00008895  xdc_runtime_System_putchar__I                                             
00009425  xdc_runtime_System_vsnprintf__E                                           
0000148c  xdc_runtime_Text_charCnt__C                                               
0000e05f  xdc_runtime_Text_charTab__A                                               
00001478  xdc_runtime_Text_charTab__C                                               
1001c719  xdc_runtime_Text_cordText__E                                              
0000148e  xdc_runtime_Text_isLoaded__C                                              
0000147c  xdc_runtime_Text_nameEmpty__C                                             
00001480  xdc_runtime_Text_nameStatic__C                                            
00001484  xdc_runtime_Text_nameUnknown__C                                           
1001c7e5  xdc_runtime_Text_ropeText__E                                              
1001c82d  xdc_runtime_Timestamp_SupportProxy_get32__E                               
0000946d  xdc_runtime_Timestamp_SupportProxy_get32__E__mangled__                    
1001b9cd  xdc_runtime_Timestamp_SupportProxy_get64__E                               
1001b9cd  xdc_runtime_Timestamp_SupportProxy_get64__E__mangled__                    
1001c12b  xdc_runtime_Timestamp_SupportProxy_getFreq__E                             
1001c12b  xdc_runtime_Timestamp_SupportProxy_getFreq__E__mangled__                  
1001c82d  xdc_runtime_Timestamp_get32__E                                            
1001c82d  xdc_runtime_Timestamp_get32__E                                            
1001b9cd  xdc_runtime_Timestamp_get64__E                                            
1001b9cd  xdc_runtime_Timestamp_get64__E                                            
1001c12b  xdc_runtime_Timestamp_getFreq__E                                          
1001c12b  xdc_runtime_Timestamp_getFreq__E                                          


GLOBAL SYMBOLS: SORTED BY Symbol Address 

address   name                                                                      
-------   ----                                                                      
00000000  __ASM__                                                                   
00000000  ti_sysbios_family_arm_m3_Hwi_resetVectors                                 
00000001  xdc_runtime_Startup__EXECFXN__C                                           
00000001  xdc_runtime_Startup__RESETFXN__C                                          
0000003d  EasyLink_configure                                                        
00000080  __ISA__                                                                   
00000092  __PLAT__                                                                  
000000b9  __TARG__                                                                  
000000de  __TRDR__                                                                  
00000400  __STACK_SIZE                                                              
00000835  xdc_runtime_System_doPrint__I                                             
00000b71  PowerCC26XX_auxISR                                                        
00000e7d  EasyLink_transmit                                                         
00001000  HEAPSIZE                                                                  
00001000  ti_sysbios_knl_Task_Object__PARAMS__C                                     
0000103c  ti_sysbios_knl_Mailbox_Object__PARAMS__C                                  
00001070  ti_sysbios_family_arm_m3_Hwi_Object__PARAMS__C                            
000010a0  ti_sysbios_hal_Hwi_Object__PARAMS__C                                      
000010cc  ti_sysbios_heaps_HeapMem_Module__FXNS__C                                  
000010f4  ti_sysbios_knl_Swi_Object__PARAMS__C                                      
0000111c  ti_sysbios_gates_GateHwi_Module__FXNS__C                                  
00001140  ti_sysbios_gates_GateMutex_Module__FXNS__C                                
00001164  ti_sysbios_heaps_HeapMem_Object__PARAMS__C                                
00001188  ti_sysbios_knl_Clock_Object__PARAMS__C                                    
000011ac  ti_sysbios_knl_Semaphore_Object__PARAMS__C                                
000011d0  ti_sysbios_family_arm_m3_Hwi_Object__DESC__C                              
000011f0  ti_sysbios_gates_GateHwi_Object__DESC__C                                  
00001210  ti_sysbios_gates_GateMutex_Object__DESC__C                                
00001230  ti_sysbios_hal_Hwi_Object__DESC__C                                        
00001250  ti_sysbios_heaps_HeapMem_Object__DESC__C                                  
00001270  ti_sysbios_knl_Clock_Object__DESC__C                                      
00001290  ti_sysbios_knl_Mailbox_Object__DESC__C                                    
000012b0  ti_sysbios_knl_Queue_Object__DESC__C                                      
000012d0  ti_sysbios_knl_Semaphore_Object__DESC__C                                  
000012f0  ti_sysbios_knl_Swi_Object__DESC__C                                        
00001310  ti_sysbios_knl_Task_Object__DESC__C                                       
00001330  ti_sysbios_gates_GateHwi_Object__PARAMS__C                                
00001348  ti_sysbios_gates_GateMutex_Object__PARAMS__C                              
00001360  ti_sysbios_knl_Queue_Object__PARAMS__C                                    
00001378  ti_sysbios_knl_Idle_funcList__C                                           
00001384  ti_sysbios_family_arm_cc26xx_Timer_startupNeeded__C                       
00001388  ti_sysbios_family_arm_m3_Hwi_E_alreadyDefined__C                          
0000138c  ti_sysbios_family_arm_m3_Hwi_E_hwiLimitExceeded__C                        
00001390  ti_sysbios_family_arm_m3_Hwi_NUM_INTERRUPTS__C                            
00001394  ti_sysbios_family_arm_m3_Hwi_Object__count__C                             
00001398  ti_sysbios_family_arm_m3_Hwi_Object__table__C                             
0000139c  ti_sysbios_family_arm_m3_Hwi_ccr__C                                       
000013a0  ti_sysbios_family_arm_m3_Hwi_excHandlerFunc__C                            
000013a4  ti_sysbios_family_arm_m3_Hwi_nullIsrFunc__C                               
000013a8  ti_sysbios_family_arm_m3_Hwi_numSparseInterrupts__C                       
000013ac  ti_sysbios_family_arm_m3_Hwi_priGroup__C                                  
000013b0  ti_sysbios_family_arm_m3_TaskSupport_stackAlignment__C                    
000013b4  ti_sysbios_heaps_HeapMem_E_memory__C                                      
000013b8  ti_sysbios_heaps_HeapMem_Module__gateObj__C                               
000013bc  ti_sysbios_heaps_HeapMem_Object__count__C                                 
000013c0  ti_sysbios_heaps_HeapMem_Object__table__C                                 
000013c4  ti_sysbios_heaps_HeapMem_reqAlign__C                                      
000013c8  ti_sysbios_knl_Clock_serviceMargin__C                                     
000013cc  ti_sysbios_knl_Mailbox_Object__count__C                                   
000013d0  ti_sysbios_knl_Mailbox_Object__table__C                                   
000013d4  ti_sysbios_knl_Mailbox_maxTypeAlign__C                                    
000013d8  ti_sysbios_knl_Queue_Object__count__C                                     
000013dc  ti_sysbios_knl_Queue_Object__table__C                                     
000013e0  ti_sysbios_knl_Swi_Object__count__C                                       
000013e4  ti_sysbios_knl_Swi_Object__table__C                                       
000013e8  ti_sysbios_knl_Swi_numPriorities__C                                       
000013ec  ti_sysbios_knl_Task_Object__count__C                                      
000013f0  ti_sysbios_knl_Task_Object__table__C                                      
000013f4  ti_sysbios_knl_Task_allBlockedFunc__C                                     
000013f8  ti_sysbios_knl_Task_defaultStackHeap__C                                   
000013fc  ti_sysbios_knl_Task_defaultStackSize__C                                   
00001400  ti_sysbios_knl_Task_numConstructedTasks__C                                
00001405  DisplayUartMin_clear                                                      
00001406  ti_sysbios_family_arm_cc26xx_Timer_Module__id__C                          
00001408  ti_sysbios_family_arm_cc26xx_TimestampProvider_useClockTimer__C           
0000140a  ti_sysbios_family_arm_m3_Hwi_Module__id__C                                
0000140c  ti_sysbios_gates_GateHwi_Module__id__C                                    
0000140e  ti_sysbios_gates_GateMutex_Module__id__C                                  
00001410  ti_sysbios_heaps_HeapMem_Module__id__C                                    
00001412  ti_sysbios_knl_Task_initStackFlag__C                                      
00001414  ti_sysbios_knl_Clock_tickMode__C                                          
00001418  xdc_runtime_Startup_firstFxns__C                                          
00001420  xdc_runtime_Startup_lastFxns__C                                           
00001428  xdc_runtime_Assert_E_assertFailed__C                                      
0000142c  xdc_runtime_Error_E_memory__C                                             
00001430  xdc_runtime_Error_policyFxn__C                                            
00001434  xdc_runtime_IGateProvider_Interface__BASE__C                              
00001438  xdc_runtime_IHeap_Interface__BASE__C                                      
0000143c  xdc_runtime_IModule_Interface__BASE__C                                    
00001440  xdc_runtime_Main_Module__diagsEnabled__C                                  
00001444  xdc_runtime_Main_Module__diagsIncluded__C                                 
00001448  xdc_runtime_Main_Module__diagsMask__C                                     
0000144c  xdc_runtime_Memory_defaultHeapInstance__C                                 
00001450  xdc_runtime_Startup_execImpl__C                                           
00001454  xdc_runtime_Startup_maxPasses__C                                          
00001458  xdc_runtime_Startup_sfxnRts__C                                            
0000145c  xdc_runtime_Startup_sfxnTab__C                                            
00001460  xdc_runtime_Startup_startModsFxn__C                                       
00001464  xdc_runtime_SysCallback_abortFxn__C                                       
00001468  xdc_runtime_SysCallback_exitFxn__C                                        
0000146c  xdc_runtime_System_abortFxn__C                                            
00001470  xdc_runtime_System_exitFxn__C                                             
00001474  xdc_runtime_System_maxAtexitHandlers__C                                   
00001478  xdc_runtime_Text_charTab__C                                               
0000147c  xdc_runtime_Text_nameEmpty__C                                             
00001480  xdc_runtime_Text_nameStatic__C                                            
00001484  xdc_runtime_Text_nameUnknown__C                                           
00001488  xdc_runtime_Main_Module__id__C                                            
0000148a  xdc_runtime_Memory_Module__id__C                                          
0000148c  xdc_runtime_Text_charCnt__C                                               
0000148e  xdc_runtime_Text_isLoaded__C                                              
00001490  xdc_runtime_Error_policy__C                                               
00001494  ti_sysbios_rom_ROM_AONRTCChannelEnable                                    
00001498  ti_sysbios_rom_ROM_AONRTCCompareValueSet                                  
0000149c  ti_sysbios_rom_ROM_AONRTCCurrentCompareValueGet                           
000014a0  ti_sysbios_rom_ROM_AONRTCEventClear                                       
000014a4  ti_sysbios_rom_ROM_ti_sysbios_family_arm_cc26xx_Timer_getCount64__E       
000014a8  ti_sysbios_rom_ROM_ti_sysbios_family_arm_cc26xx_Timer_getCurrentTick__E   
000014ac  ti_sysbios_rom_ROM_ti_sysbios_family_arm_cc26xx_Timer_getMaxTicks__E      
000014b0  ti_sysbios_rom_ROM_ti_sysbios_family_arm_cc26xx_Timer_initDevice__I       
000014b4  ti_sysbios_rom_ROM_ti_sysbios_family_arm_cc26xx_Timer_setNextTick__E      
000014b8  ti_sysbios_rom_ROM_ti_sysbios_family_arm_cc26xx_Timer_setThreshold__I     
000014bc  ti_sysbios_rom_ROM_ti_sysbios_family_arm_cc26xx_Timer_start__E            
000014c0  ti_sysbios_rom_ROM_ti_sysbios_family_arm_cc26xx_TimestampProvider_get32__E
000014c4  ti_sysbios_rom_ROM_xdc_runtime_Startup_getState__I                        
000014c8  ti_sysbios_rom_ROM_xdc_runtime_System_SupportProxy_abort__E               
000014cc  ti_sysbios_rom_ROM_xdc_runtime_System_SupportProxy_exit__E                
000014d0  ti_sysbios_gates_GateMutex_Instance_State_sem__O                          
000014d4  ti_sysbios_knl_Clock_Module_State_clockQ__O                               
000014d8  ti_sysbios_knl_Mailbox_Instance_State_dataQue__O                          
000014dc  ti_sysbios_knl_Mailbox_Instance_State_dataSem__O                          
000014e0  ti_sysbios_knl_Mailbox_Instance_State_freeQue__O                          
000014e4  ti_sysbios_knl_Mailbox_Instance_State_freeSem__O                          
000014e8  ti_sysbios_knl_Semaphore_Instance_State_pendQ__O                          
000014ec  ti_sysbios_knl_Task_Module_State_inactiveQ__O                             
000014f1  NOROM_SysCtrlSetRechargeBeforePowerDown                                   
00001719  Power_sleep                                                               
00001b41  RF_open                                                                   
00001d3d  __aeabi_uldivmod                                                          
00001f31  PIN_init                                                                  
000020ed  EasyLink_receiveAsync                                                     
000022a5  __aeabi_dsub                                                              
000022af  __aeabi_dadd                                                              
0000245b  DisplayUartMin_clearLines                                                 
00002799  RF_scheduleCmd                                                            
0000292d  PowerCC26XX_doCalibrate                                                   
00003099  xdc_runtime_System_printfExtend__I                                        
00003201  UARTCC26XX_open                                                           
0000388d  NOROM_SetupAfterColdResetWakeupFromShutDownCfg3                           
00003e5d  UARTCC26XX_read                                                           
00003f79  Power_init                                                                
000041a1  UARTCC26XX_hwiIntFxn                                                      
000042b3  DisplayUartMin_init                                                       
000043b5  scifInit                                                                  
000044b5  RF_close                                                                  
000045b1  UARTCC26XX_write                                                          
000046ad  __aeabi_dmul                                                              
000047a9  NOROM_SetupAfterColdResetWakeupFromShutDownCfg2                           
00004899  RF_pendCmd                                                                
00004989  ti_sysbios_knl_Event_pend__E                                              
00004a71  PowerCC26XX_standbyPolicy                                                 
00004c35  NOROM_RFCOverrideUpdate                                                   
00004ded  EasyLink_enableRxAddrFilter                                               
0000514d  NOROM_RFCRfTrimRead                                                       
00005221  RF_postCmd                                                                
00005549  EasyLink_setCtrl                                                          
00005609  RF_cancelCmd                                                              
000056c9  Power_releaseDependency                                                   
000058f9  Power_setDependency                                                       
000059ad  NodeRadioTask_init                                                        
00005a59  NOROM_SetupTrimDevice                                                     
00005a59  ti_sysbios_family_arm_cc26xx_Boot_trimDevice                              
00005ba9  NOROM_SetupAfterColdResetWakeupFromShutDownCfg1                           
00005cf1  NodeTask_init                                                             
00005e31  __TI_auto_init                                                            
00005f6d  __aeabi_memcpy                                                            
00005f6d  __aeabi_memcpy4                                                           
00005f6d  __aeabi_memcpy8                                                           
00005f6d  memcpy                                                                    
000060a5  PIN_open                                                                  
000061d5  ti_sysbios_knl_Clock_workFuncDynamic__E                                   
0000626d  UARTCC26XX_close                                                          
000062f9  UARTCC26XX_writeCancel                                                    
00006385  scifInitIo                                                                
0000649d  __aeabi_cdcmpeq                                                           
0000649d  __aeabi_cdcmple                                                           
00006523  __aeabi_cdrcmple                                                          
000066a9  __aeabi_memclr                                                            
000066a9  __aeabi_memclr4                                                           
000066a9  __aeabi_memclr8                                                           
000066ab  __aeabi_memset                                                            
000066ab  __aeabi_memset4                                                           
000066ab  __aeabi_memset8                                                           
000066b1  memset                                                                    
0000679d  NOROM_SetupSetVddrLevel                                                   
000068f9  ti_sysbios_family_arm_cc26xx_Timer_start__E                               
0000696d  scifGetTaskStruct                                                         
000069dd  ti_sysbios_knl_Event_post__E                                              
00006a4d  xdc_runtime_System_formatNum__I                                           
00006abd  PowerCC26XX_initiateCalibration                                           
00006b29  NOROM_SetupGetTrimForAmpcompCtrl                                          
00006b91  NOROM_SetupGetTrimForAnabypassValue1                                      
00006bf9  NOROM_SysCtrlAdjustRechargeAfterPowerDown                                 
00006c61  NOROM_SysCtrl_DCDC_VoltageConditionalControl                              
00006cc9  UARTCC26XX_readCancel                                                     
00006d31  __TI_decompress_lzss                                                      
00006e69  EasyLink_init                                                             
00006ecd  NOROM_OSCHF_AttemptToSwitchToXosc                                         
00006f95  NOROM_OSCClockSourceSet                                                   
00006ff5  UARTCC26XX_control                                                        
00007235  Display_doOpen                                                            
00007291  NodeRadioTask_sendAdcData                                                 
000072ed  PowerCC26XX_RCOSC_clockFunc                                               
00007349  PowerCC26XX_calibrate                                                     
00007401  ti_sysbios_heaps_HeapMem_initPrimary__I                                   
0000745d  xdc_runtime_Startup_getState__I                                           
000074b9  PIN_remove                                                                
00007671  scifReinitIo                                                              
000076c9  scifUninitIo                                                              
00007721  SceAdc_init                                                               
00007775  NOROM_SetupSetCacheModeAccordingToCcfgSetting                             
000077c5  RF_getCurrentTime                                                         
00007901  copy_in                                                                   
0000794d  DisplayUartMin_open                                                       
00007999  ClockP_construct                                                          
000079e1  PIN_setOutputEnable                                                       
00007a71  __aeabi_d2iz                                                              
00007ab9  DisplayUartMin_vprintf                                                    
00007b01  RF_releasePowerConstraint                                                 
00007b45  RingBuf_put                                                               
00007b89  ResetISR                                                                  
00007b89  _c_int00                                                                  
00007c11  __aeabi_d2uiz                                                             
00007c55  scifStartRtcTicks                                                         
00007cd9  UART_init                                                                 
00007d19  UART_open                                                                 
00007d59  __aeabi_uidiv                                                             
00007d59  __aeabi_uidivmod                                                          
00007d99  scifStartRtcTicksNow                                                      
00007dd9  ti_sysbios_family_arm_cc26xx_Timer_setThreshold__I                        
00007e19  HwiP_construct                                                            
00007e57  RingBuf_get                                                               
00007e95  NOROM_ChipInfo_GetHwRevision                                              
00007ed1  NOROM_OSC_HPOSCRelativeFrequencyOffsetGet                                 
00007f0d  NOROM_RFCSynthPowerDown                                                   
00007f49  PowerCC26XX_isStableXOSC_HF                                               
00007f85  SwiP_construct                                                            
00008039  ti_sysbios_family_arm_m3_Hwi_construct2__E                                
00008075  PIN_setOutputValue                                                        
000080ad  UARTCC26XX_swiIntFxn                                                      
0000811d  __aeabi_f2d                                                               
0000818d  NOROM_OSCHF_SwitchToRcOscTurnOffXosc                                      
000081c1  PIN_setConfig                                                             
000081f5  Power_releaseConstraint                                                   
000082c5  scifAckAlertEvents                                                        
000082f9  scifOsalInit                                                              
00008361  ti_sysbios_family_arm_cc26xx_Timer_initDevice__I                          
00008395  ti_sysbios_family_arm_cc26xx_Timer_setNextTick__E                         
000083c9  NOROM_ChipInfo_GetChipType                                                
000083f9  NOROM_SetupSetAonRtcSubSecInc                                             
00008429  Power_setConstraint                                                       
00008459  RF_runCmd                                                                 
00008519  ti_sysbios_BIOS_atExitFunc__I                                             
00008549  ti_sysbios_BIOS_startFunc__I                                              
00008579  ti_sysbios_family_arm_cc26xx_Timer_getCurrentTick__E                      
000085a9  __aeabi_i2d                                                               
000085d9  NOROM_DDI32RegWrite                                                       
00008605  NOROM_OSCClockSourceGet                                                   
00008631  NOROM_RFCCPEPatchReset                                                    
0000865d  NOROM_SetupGetTrimForRadcExtCfg                                           
00008689  PINCC26XX_setMux                                                          
000086b5  SemaphoreP_constructBinary                                                
000086e1  SemaphoreP_createBinary                                                   
000087bd  ti_sysbios_knl_Clock_getTicksUntilInterrupt__E                            
000087e9  ti_sysbios_knl_Event_construct                                            
00008815  ti_sysbios_knl_Event_pendTimeout__I                                       
00008841  Display_doPrintf                                                          
0000886b  ti_sysbios_knl_Clock_getTimeout__E                                        
00008895  xdc_runtime_System_putchar__I                                             
000088c1  Display_doInit                                                            
000088e9  NOROM_AONBatMonTemperatureGetDegC                                         
00008911  Power_registerNotify                                                      
00008939  SafeHapiVoid                                                              
00008961  NOROM_RFCDoorbellSendTo                                                   
00008985  SceAdc_setReportInterval                                                  
000089f1  ti_sysbios_BIOS_registerRTSLock__I                                        
00008a15  ti_sysbios_BIOS_removeRTSLock__I                                          
00008a39  ti_sysbios_family_arm_cc26xx_Timer_getMaxTicks__E                         
00008a5d  List_put                                                                  
00008a81  NOROM_RFCAdi3VcoLdoVoltageMode                                            
00008aa1  NOROM_SetupGetTrimForXoscHfCtl                                            
00008ac1  PowerCC26XX_schedulerDisable                                              
00008ae1  PowerCC26XX_schedulerRestore                                              
00008b01  Power_unregisterNotify                                                    
00008b61  ti_sysbios_BIOS_rtsLock__I                                                
00008b81  ti_sysbios_family_arm_cc26xx_Timer_dynamicStub__E                         
00008ba1  ti_sysbios_knl_Clock_stop__E                                              
00008bc1  ti_sysbios_knl_Event_checkEvents__I                                       
00008be1  xdc_runtime_Error_policyMin__E                                            
00008c01  PIN_close                                                                 
00008c1f  Power_getTransitionLatency                                                
00008c3d  NOROM_ChipInfo_GetChipFamily                                              
00008c59  NOROM_SetupGetTrimForAmpcompTh2                                           
00008c75  NOROM_SetupGetTrimForRcOscLfRtuneCtuneTrim                                
00008cc9  RF_setPowerConstraint                                                     
00008da9  ti_sysbios_family_arm_m3_Hwi_clearInterrupt__E                            
00008da9  ti_sysbios_hal_Hwi_HwiProxy_clearInterrupt__E                             
00008da9  ti_sysbios_hal_Hwi_clearInterrupt__E                                      
00008dc5  ti_sysbios_knl_Swi_construct2__E                                          
00008de1  main                                                                      
00008dfb  __aeabi_idiv0                                                             
00008dfd  CC1310_LAUNCHXL_initGeneral                                               
00008e15  EasyLink_Params_init                                                      
00008e2d  NOROM_AONRTCCurrentCompareValueGet                                        
00008e45  NOROM_ChipInfo_GetPackageType                                             
00008e5d  NOROM_OSCHF_TurnOnXosc                                                    
00008e75  NOROM_RFCCpeIntGetAndClear                                                
00008e8d  NOROM_RFCHWIntGetAndClear                                                 
00008ea5  NOROM_SetupGetTrimForAdcShModeEn                                          
00008ebd  NOROM_SetupGetTrimForAdcShVbufEn                                          
00008ed5  NOROM_SetupGetTrimForAmpcompTh1                                           
00008eed  NOROM_SetupGetTrimForDblrLoopFilterResetVoltage                           
00008f05  NOROM_SetupGetTrimForRcOscLfIBiasTrim                                     
00008f1d  NOROM_SetupGetTrimForXoscLfRegulatorAndCmirrwrRatio                       
00008f35  Power_idleFunc                                                            
00008f65  UARTCC26XX_init                                                           
00008f7d  UART_Params_init                                                          
00008fad  _args_main                                                                
00008fc5  __aeabi_lmul                                                              
00008fdd  scifClearAlertIntSource                                                   
00009025  ti_sysbios_BIOS_rtsUnlock__I                                              
0000903d  ti_sysbios_knl_Swi_or__E                                                  
00009055  ti_sysbios_rom_cortexm_cc13xx_CC13xx_checkRevision__E                     
0000906d  xdc_runtime_Error_init__E                                                 
00009085  DisplayUartMin_close                                                      
0000909b  List_remove                                                               
000090b1  NOROM_ThisLibraryIsFor_CC13x0_HwRev20AndLater_HaltIfViolated              
000090c7  ti_sysbios_BIOS_exitFunc__I                                               
000091a3  ti_sysbios_BIOS_linkedWithIncorrectBootLibrary__E                         
000091b9  NOROM_AONRTCCurrent64BitValueGet                                          
000091cd  PIN_getInputValue                                                         
000091e1  PIN_getOutputValue                                                        
000091f5  RF_Params_init                                                            
00009209  SceAdc_registerAdcCallback                                                
00009231  _register_unlock                                                          
00009237  _register_lock                                                            
0000923f  _nop                                                                      
00009245  strlen                                                                    
00009259  scifOsalRegisterCtrlReadyCallback                                         
0000926d  scifOsalRegisterTaskAlertCallback                                         
00009281  ti_sysbios_knl_Clock_doTick__I                                            
00009295  ti_sysbios_knl_Event_Instance_init__E                                     
000092bb  RingBuf_construct                                                         
000092cd  SemaphoreP_pend                                                           
000092df  scifStartTasksNbl                                                         
000092f1  xdc_runtime_Startup_exec__I                                               
00009303  ClockP_isActive                                                           
00009313  HwiP_Params_init                                                          
00009323  ti_sysbios_BIOS_nullFunc__I                                               
00009325  NOROM_RFCRfTrimSet                                                        
00009335  NOROM_SetupGetTrimForXoscHfFastStart                                      
00009345  NOROM_SetupGetTrimForXoscHfIbiastherm                                     
00009355  PINCC26XX_getPinCount                                                     
00009365  SwiP_Params_init                                                          
000093e5  ti_sysbios_family_arm_m3_Hwi_post__E                                      
000093e5  ti_sysbios_hal_Hwi_HwiProxy_post__E                                       
000093e5  ti_sysbios_hal_Hwi_post__E                                                
00009405  xdc_runtime_SysCallback_putch__E                                          
00009405  xdc_runtime_System_SupportProxy_putch__E                                  
00009415  xdc_runtime_SysCallback_ready__E                                          
00009415  xdc_runtime_System_SupportProxy_ready__E                                  
00009425  xdc_runtime_System_vsnprintf__E                                           
00009435  NOROM_VIMSModeGet                                                         
00009443  __TI_decompress_none                                                      
0000946d  ti_sysbios_family_arm_cc26xx_TimestampProvider_get32__E                   
0000946d  xdc_runtime_Timestamp_SupportProxy_get32__E__mangled__                    
0000947b  Display_doClear                                                           
00009487  ti_sysbios_knl_Clock_triggerFunc__I                                       
00009495  List_empty                                                                
000094a1  NOROM_CPUcpsid                                                            
000094ad  NOROM_CPUcpsie                                                            
000094b9  NOROM_OSC_HPOSCRelativeFrequencyOffsetToRFCoreFormatConvert               
000094c5  PIN_registerIntCb                                                         
000094d1  Power_getConstraintMask                                                   
000094dd  Power_getDependencyCount                                                  
000094e9  SemaphoreP_delete                                                         
000094f5  __TI_zero_init                                                            
00009501  nodeRadioTask_getNodeAddr                                                 
00009519  scifGetAlertEvents                                                        
00009525  scifOsalLeaveCriticalSection                                              
0000953d  ti_sysbios_knl_Event_Params__init__S                                      
00009579  ti_sysbios_knl_Swi_getTrigger__E                                          
00009585  xdc_runtime_Startup_reset__I                                              
00009591  xdc_runtime_Startup_rtsDone__E                                            
0000959d  SceAdc_start                                                              
000095a7  UART_close                                                                
000095b1  UART_control                                                              
000095bb  UART_write                                                                
000095ed  scifOsalDisableTaskAlertInt                                               
000095f7  scifOsalEnableTaskAlertInt                                                
00009601  RF_flushCmd                                                               
00009639  scifOsalEnterCriticalSection                                              
00009649  ClockP_Params_init                                                        
0000964f  DisplayUartMin_control                                                    
00009655  DisplayUartMin_getType                                                    
0000965b  Display_doParamsInit                                                      
00009661  NOROM_CPUdelay                                                            
00009667  UARTCC26XX_readPolling                                                    
0000966d  UARTCC26XX_writePolling                                                   
00009679  ti_sysbios_family_arm_m3_Hwi_setFunc__E                                   
0000967f  ClockP_destruct                                                           
00009683  ClockP_getCpuFreq                                                         
00009687  ClockP_getTimeout                                                         
0000968b  ClockP_setTimeout                                                         
0000968f  ClockP_start                                                              
00009693  ClockP_stop                                                               
00009697  HwiP_destruct                                                             
0000969b  HwiP_disable                                                              
0000969f  HwiP_enableInterrupt                                                      
000096a3  HwiP_post                                                                 
000096a7  HwiP_setFunc                                                              
000096ab  List_head                                                                 
000096af  List_next                                                                 
000096b3  PowerCC26XX_switchXOSC_HF                                                 
000096bb  SemaphoreP_destruct                                                       
000096bf  SemaphoreP_post                                                           
000096c3  SwiP_destruct                                                             
000096c7  SwiP_disable                                                              
000096cb  SwiP_getTrigger                                                           
000096cf  SwiP_or                                                                   
000096d3  SwiP_post                                                                 
000096d7  SystemP_vsnprintf                                                         
000096df  ti_sysbios_family_arm_cc26xx_Timer_getCount64__E                          
000096e3  ti_sysbios_knl_Clock_isActive__E                                          
000096e7  xdc_runtime_SysCallback_defaultReady                                      
000096eb  ti_sysbios_rom_cortexm_cc13xx_CC13xx_badRomRevision__E                    
000096ed  xdc_runtime_SysCallback_defaultAbort                                      
000096ef  xdc_runtime_SysCallback_defaultExit                                       
000096f1  xdc_runtime_SysCallback_defaultPutch                                      
0000ddc4  resourceDB                                                                
0000de98  scifDriverSetup                                                           
0000dec8  BoardGpioInitTable                                                        
0000def4  UARTCC26XX_fxnTable                                                       
0000df1c  UART_defaultParams                                                        
0000df40  xdc_runtime_Startup_sfxnTab__A                                            
0000df64  DisplayUartMin_fxnTable                                                   
0000df84  ti_sysbios_knl_Event_Object__DESC__C                                      
0000dfa4  uartCC26XXHWAttrs                                                         
0000dfe0  PowerCC26XX_config                                                        
0000e010  ti_sysbios_knl_Event_Object__PARAMS__C                                    
0000e028  displayUartHWAttrs                                                        
0000e03c  xdc_runtime_Startup_sfxnRts__A                                            
0000e05e  Display_defaultParams                                                     
0000e05f  xdc_runtime_Text_charTab__A                                               
0000e070  Display_config                                                            
0000e088  UART_config                                                               
0000e094  xdc_runtime_Startup_firstFxns__A                                          
0000e0a0  ADCBuf_count                                                              
0000e0a1  ADC_count                                                                 
0000e0a2  Display_count                                                             
0000e0a3  I2C_count                                                                 
0000e0a4  NVS_count                                                                 
0000e0a5  PWM_count                                                                 
0000e0a6  SPI_count                                                                 
0000e0a7  UART_count                                                                
0000e0a8  Watchdog_count                                                            
0000e0ac  PINCC26XX_hwAttrs                                                         
0000e0b4  RFCC26XX_hwAttrs                                                          
0000e0b8  ti_sysbios_family_arm_m3_Hwi_swiDisable__C                                
0000e0bc  ti_sysbios_family_arm_m3_Hwi_swiRestoreHwi__C                             
0000e0c0  ti_sysbios_heaps_HeapMem_primaryHeapBaseAddr__C                           
0000e0c4  ti_sysbios_heaps_HeapMem_primaryHeapEndAddr__C                            
0000e0c8  ti_sysbios_knl_Clock_tickPeriod__C                                        
0000e0cc  ti_sysbios_knl_Clock_triggerClock__C                                      
0000e0d0  ti_sysbios_knl_Event_Instance_State_pendQ__O                              
0000e0d4  ti_sysbios_knl_Idle_funcList__A                                           
0000e0d8  xdc_runtime_SysCallback_putchFxn__C                                       
0000e0dc  xdc_runtime_SysCallback_readyFxn__C                                       
0000e0e0  xdc_runtime_System_extendFxn__C                                           
0000e0e8  __TI_static_base__                                                        
0000e49c  __TI_Handler_Table_Base                                                   
0000e4a8  __TI_Handler_Table_Limit                                                  
0000e4e0  __TI_CINIT_Base                                                           
0000e540  __TI_CINIT_Limit                                                          
0001ffa8  __ccfg                                                                    
1001a001  ti_sysbios_knl_Semaphore_pend__E                                          
1001a0cd  ti_sysbios_knl_Mailbox_Instance_init__E                                   
1001a195  ti_sysbios_heaps_HeapMem_alloc__E                                         
1001a259  ti_sysbios_knl_Task_Instance_init__E                                      
1001a315  ti_sysbios_family_arm_m3_Hwi_postInit__I                                  
1001a3c5  ti_sysbios_family_arm_m3_Hwi_Instance_init__E                             
1001a465  ti_sysbios_family_arm_cc26xx_Timer_periodicStub__E                        
1001a4f9  ti_sysbios_knl_Task_Instance_finalize__E                                  
1001a58d  ti_sysbios_knl_Mailbox_post__E                                            
1001a611  ti_sysbios_knl_Task_postInit__I                                           
1001a695  ti_sysbios_family_arm_m3_Hwi_initNVIC__E                                  
1001a715  ti_sysbios_knl_Clock_startI__E                                            
1001a791  ti_sysbios_heaps_HeapMem_free__E                                          
1001a809  ti_sysbios_knl_Clock_walkQueueDynamic__E                                  
1001a881  ti_sysbios_knl_Clock_workFunc__E                                          
1001a8f9  ti_sysbios_knl_Mailbox_Instance_finalize__E                               
1001a969  ti_sysbios_knl_Mailbox_pend__E                                            
1001a9d9  ti_sysbios_knl_Task_sleep__E                                              
1001aa49  ti_sysbios_family_arm_m3_Hwi_dispatchC__I                                 
1001aab1  ti_sysbios_family_arm_m3_Hwi_Object__create__S                            
1001ab15  ti_sysbios_family_arm_m3_Hwi_create                                       
1001ab79  ti_sysbios_hal_Hwi_create                                                 
1001abdd  ti_sysbios_knl_Mailbox_create                                             
1001ac41  ti_sysbios_knl_Semaphore_post__E                                          
1001aca5  ti_sysbios_knl_Swi_Instance_init__E                                       
1001ad05  ti_sysbios_knl_Swi_create                                                 
1001ad61  ti_sysbios_knl_Swi_restoreHwi__E                                          
1001adbd  ti_sysbios_knl_Task_Module_startup__E                                     
1001ae19  ti_sysbios_knl_Task_create                                                
1001ae75  ti_sysbios_knl_Task_startCore__E                                          
1001aed1  ti_sysbios_family_arm_m3_Hwi_Instance_finalize__E                         
1001af29  ti_sysbios_family_arm_m3_Hwi_construct                                    
1001af81  ti_sysbios_knl_Mailbox_construct                                          
1001afd9  ti_sysbios_knl_Swi_run__I                                                 
1001b031  ti_sysbios_knl_Swi_schedule__I                                            
1001b085  ti_sysbios_knl_Swi_construct                                              
1001b0d5  ti_sysbios_knl_Swi_runLoop__I                                             
1001b125  ti_sysbios_knl_Task_construct                                             
1001b175  ti_sysbios_knl_Task_schedule__I                                           
1001b1c1  ti_sysbios_family_arm_m3_Hwi_Module_startup__E                            
1001b209  ti_sysbios_heaps_HeapMem_getStats__E                                      
1001b251  ti_sysbios_family_arm_m3_Hwi_disableInterrupt__E                          
1001b251  ti_sysbios_hal_Hwi_HwiProxy_disableInterrupt__E__mangled__                
1001b295  ti_sysbios_family_arm_m3_Hwi_enableInterrupt__E                           
1001b295  ti_sysbios_hal_Hwi_HwiProxy_enableInterrupt__E__mangled__                 
1001b2d9  ti_sysbios_knl_Mailbox_Module_startup__E                                  
1001b31d  ti_sysbios_knl_Swi_post__E                                                
1001b361  ti_sysbios_knl_Task_allBlockedFunction__I                                 
1001b3a5  ti_sysbios_knl_Task_yield__E                                              
1001b3e9  ti_sysbios_knl_Clock_create                                               
1001b425  ti_sysbios_knl_Task_exit__E                                               
1001b45f  ti_sysbios_gates_GateHwi_Instance_init__E                                 
1001b461  ti_sysbios_family_arm_m3_Hwi_getStackInfo__E                              
1001b461  ti_sysbios_hal_Hwi_HwiProxy_getStackInfo__E__mangled__                    
1001b499  ti_sysbios_family_arm_m3_TaskSupport_start__E                             
1001b499  ti_sysbios_knl_Task_SupportProxy_start__E__mangled__                      
1001b4d1  ti_sysbios_heaps_HeapMem_Instance_init__E                                 
1001b509  ti_sysbios_knl_Clock_Instance_init__E                                     
1001b541  ti_sysbios_heaps_HeapMem_init__I                                          
1001b575  ti_sysbios_knl_Clock_construct                                            
1001b5a9  ti_sysbios_knl_Semaphore_create                                           
1001b5dd  SwiP_restore                                                              
1001b5dd  ti_sysbios_knl_Swi_restore__E                                             
1001b611  ti_sysbios_knl_Task_blockI__E                                             
1001b645  ti_sysbios_gates_GateMutex_Object__create__S                              
1001b675  ti_sysbios_gates_GateMutex_create                                         
1001b6a5  ti_sysbios_gates_GateMutex_enter__E                                       
1001b6d5  ClockP_getSystemTicks                                                     
1001b6d5  ti_sysbios_knl_Clock_getTicks__E                                          
1001b705  ti_sysbios_knl_Semaphore_construct                                        
1001b735  ti_sysbios_knl_Task_processVitalTaskFlag__I                               
1001b765  ti_sysbios_family_arm_cc26xx_Timer_postInit__I                            
1001b791  ti_sysbios_family_arm_cc26xx_Timer_startup__E                             
1001b791  ti_sysbios_knl_Clock_TimerProxy_startup__E                                
1001b791  ti_sysbios_knl_Clock_TimerProxy_startup__E__mangled__                     
1001b7bd  ti_sysbios_family_arm_m3_Hwi_Object__get__S                               
1001b7e9  ti_sysbios_gates_GateMutex_construct                                      
1001b815  ti_sysbios_hal_Hwi_initStack                                              
1001b841  ti_sysbios_heaps_HeapMem_Object__create__S                                
1001b86d  ti_sysbios_heaps_HeapMem_Object__get__S                                   
1001b899  ti_sysbios_knl_Mailbox_Object__get__S                                     
1001b8c5  ti_sysbios_knl_Mailbox_postInit__I                                        
1001b8f1  ti_sysbios_knl_Queue_construct                                            
1001b91d  ti_sysbios_knl_Queue_create                                               
1001b949  ti_sysbios_knl_Semaphore_pendTimeout__I                                   
1001b975  ti_sysbios_knl_Swi_Object__get__S                                         
1001b9a1  ti_sysbios_knl_Task_unblockI__E                                           
1001b9cd  ti_sysbios_family_arm_cc26xx_TimestampProvider_get64__E                   
1001b9cd  xdc_runtime_Timestamp_SupportProxy_get64__E                               
1001b9cd  xdc_runtime_Timestamp_SupportProxy_get64__E__mangled__                    
1001b9cd  xdc_runtime_Timestamp_get64__E                                            
1001b9cd  xdc_runtime_Timestamp_get64__E                                            
1001b9f5  ti_sysbios_hal_Hwi_Instance_init__E                                       
1001ba1d  ti_sysbios_knl_Clock_addI__E                                              
1001ba45  ti_sysbios_knl_Task_restore__E                                            
1001ba6d  ti_sysbios_family_arm_cc26xx_Timer_Module_startup__E                      
1001ba91  ti_sysbios_gates_GateHwi_Object__create__S                                
1001bab5  ti_sysbios_BIOS_RtsGateProxy_Object__delete__S                            
1001bab5  ti_sysbios_gates_GateMutex_Object__delete__S                              
1001bab5  ti_sysbios_heaps_HeapMem_Module_GateProxy_Object__delete__S               
1001bad9  ti_sysbios_knl_Clock_Object__delete__S                                    
1001bafd  ti_sysbios_knl_Semaphore_Instance_init__E                                 
1001bb21  ti_sysbios_knl_Semaphore_Object__delete__S                                
1001bb45  ti_sysbios_family_arm_cc26xx_Timer_Module__startupDone__S                 
1001bb45  ti_sysbios_knl_Clock_TimerProxy_Module__startupDone__S__mangled__         
1001bb65  ti_sysbios_family_arm_cc26xx_TimestampProvider_Module_startup__E          
1001bb85  ti_sysbios_family_arm_m3_Hwi_Module__startupDone__S                       
1001bb85  ti_sysbios_hal_Hwi_HwiProxy_Module__startupDone__S__mangled__             
1001bba5  ti_sysbios_family_arm_m3_Hwi_Object__delete__S                            
1001bba5  ti_sysbios_hal_Hwi_HwiProxy_Object__delete__S                             
1001bbc5  ti_sysbios_family_arm_m3_Hwi_excHandler__I                                
1001bbe5  ti_sysbios_gates_GateHwi_Handle__label__S                                 
1001bbe5  xdc_runtime_Main_Module_GateProxy_Handle__label__S                        
1001bbe5  xdc_runtime_System_Module_GateProxy_Handle__label__S                      
1001bbe5  xdc_runtime_System_Module_GateProxy_Handle__label__S__mangled__           
1001bc05  ti_sysbios_gates_GateHwi_Object__delete__S                                
1001bc05  xdc_runtime_System_Module_GateProxy_Object__delete__S                     
1001bc25  ti_sysbios_BIOS_RtsGateProxy_Handle__label__S                             
1001bc25  ti_sysbios_BIOS_RtsGateProxy_Handle__label__S__mangled__                  
1001bc25  ti_sysbios_gates_GateMutex_Handle__label__S                               
1001bc25  ti_sysbios_heaps_HeapMem_Module_GateProxy_Handle__label__S                
1001bc25  ti_sysbios_heaps_HeapMem_Module_GateProxy_Handle__label__S__mangled__     
1001bc45  ti_sysbios_gates_GateMutex_Object__destruct__S                            
1001bc65  ti_sysbios_hal_Hwi_Object__delete__S                                      
1001bc85  ti_sysbios_heaps_HeapMem_Handle__label__S                                 
1001bc85  xdc_runtime_Memory_HeapProxy_Handle__label__S                             
1001bc85  xdc_runtime_Memory_HeapProxy_Handle__label__S__mangled__                  
1001bca5  ti_sysbios_heaps_HeapMem_Object__delete__S                                
1001bca5  xdc_runtime_Memory_HeapProxy_Object__delete__S                            
1001bcc5  ti_sysbios_knl_Clock_Module_startup__E                                    
1001bce5  ti_sysbios_knl_Clock_Object__destruct__S                                  
1001bd05  ti_sysbios_knl_Idle_run__E                                                
1001bd25  ti_sysbios_knl_Mailbox_Object__delete__S                                  
1001bd45  ti_sysbios_knl_Queue_Object__delete__S                                    
1001bd65  ti_sysbios_knl_Queue_Object__get__S                                       
1001bd85  ti_sysbios_knl_Semaphore_Object__destruct__S                              
1001bda5  ti_sysbios_knl_Swi_Object__delete__S                                      
1001bdc5  ti_sysbios_knl_Task_Object__delete__S                                     
1001bde5  ti_sysbios_knl_Task_Object__get__S                                        
1001be05  ti_sysbios_knl_Task_enter__I                                              
1001be25  ti_sysbios_knl_Task_restoreHwi__E                                         
1001be45  ti_sysbios_hal_Hwi_HwiProxy_create                                        
1001be63  ti_sysbios_knl_Clock_logTick__E                                           
1001be65  ti_sysbios_family_arm_m3_Hwi_Object__destruct__S                          
1001be81  ti_sysbios_family_arm_m3_Hwi_setPriority__E                               
1001be9d  ti_sysbios_gates_GateMutex_Instance_init__E                               
1001beb9  ti_sysbios_knl_Clock_scheduleNextTick__E                                  
1001bed5  ti_sysbios_knl_Mailbox_Object__destruct__S                                
1001bef1  ti_sysbios_knl_Queue_Object__destruct__S                                  
1001bf0d  ti_sysbios_knl_Queue_get__E                                               
1001bf29  ti_sysbios_knl_Queue_put__E                                               
1001bf45  ti_sysbios_knl_Swi_Object__destruct__S                                    
1001bf61  ti_sysbios_knl_Task_Object__destruct__S                                   
1001bf7d  ti_sysbios_knl_Task_sleepTimeout__I                                       
1001bf97  ti_sysbios_knl_Swi_Instance_finalize__E                                   
1001bf99  ti_sysbios_gates_GateMutex_leave__E                                       
1001bfb1  ti_sysbios_knl_Task_unblock__E                                            
1001bfc9  ti_sysbios_knl_Clock_Instance_finalize__E                                 
1001bfdf  ti_sysbios_knl_Clock_start__E                                             
1001bff5  ti_sysbios_BIOS_getCpuFreq__E                                             
1001c009  ti_sysbios_family_arm_m3_Hwi_switchFromBootStack__E                       
1001c009  ti_sysbios_hal_Hwi_HwiProxy_switchFromBootStack__E__mangled__             
1001c01d  ti_sysbios_hal_Hwi_Module_startup__E                                      
1001c031  ti_sysbios_BIOS_exit__E                                                   
1001c041  ti_sysbios_BIOS_setThreadType__E                                          
1001c051  ti_sysbios_BIOS_start__E                                                  
1001c061  ti_sysbios_family_arm_m3_Hwi_plug__E                                      
1001c071  ti_sysbios_gates_GateMutex_Instance_finalize__E                           
1001c081  ti_sysbios_hal_Hwi_HwiProxy_Object__create__S                             
1001c091  ti_sysbios_knl_Clock_TimerProxy_getCurrentTick__E                         
1001c0a1  ti_sysbios_knl_Clock_TimerProxy_getMaxTicks__E                            
1001c0b1  ti_sysbios_knl_Clock_TimerProxy_setNextTick__E                            
1001c0c1  ti_sysbios_knl_Semaphore_Instance_finalize__E                             
1001c0d1  ti_sysbios_knl_Swi_disable__E                                             
1001c0e1  ti_sysbios_knl_Swi_enabled__E                                             
1001c0f1  ti_sysbios_knl_Task_disable__E                                            
1001c101  ti_sysbios_heaps_HeapMem_restore__E                                       
1001c10f  ti_sysbios_knl_Queue_empty__E                                             
1001c11d  ti_sysbios_knl_Queue_remove__E                                            
1001c12b  ti_sysbios_family_arm_cc26xx_TimestampProvider_getFreq__E                 
1001c12b  xdc_runtime_Timestamp_SupportProxy_getFreq__E                             
1001c12b  xdc_runtime_Timestamp_SupportProxy_getFreq__E__mangled__                  
1001c12b  xdc_runtime_Timestamp_getFreq__E                                          
1001c12b  xdc_runtime_Timestamp_getFreq__E                                          
1001c139  ti_sysbios_family_arm_m3_Hwi_Params__init__S                              
1001c139  ti_sysbios_hal_Hwi_HwiProxy_Params__init__S                               
1001c139  ti_sysbios_hal_Hwi_HwiProxy_Params__init__S__mangled__                    
1001c145  ti_sysbios_family_arm_m3_Hwi_disableFxn__E                                
1001c151  ti_sysbios_family_arm_m3_Hwi_enableFxn__E                                 
1001c15d  ti_sysbios_family_arm_m3_TaskSupport_getStackAlignment__E                 
1001c15d  ti_sysbios_knl_Task_SupportProxy_getStackAlignment__E__mangled__          
1001c169  ti_sysbios_gates_GateHwi_enter__E                                         
1001c175  ti_sysbios_BIOS_RtsGateProxy_Params__init__S                              
1001c175  ti_sysbios_BIOS_RtsGateProxy_Params__init__S__mangled__                   
1001c175  ti_sysbios_gates_GateMutex_Params__init__S                                
1001c175  ti_sysbios_heaps_HeapMem_Module_GateProxy_Params__init__S                 
1001c175  ti_sysbios_heaps_HeapMem_Module_GateProxy_Params__init__S__mangled__      
1001c181  ti_sysbios_knl_Clock_Params__init__S                                      
1001c18d  ti_sysbios_knl_Clock_getTimerHandle__E                                    
1001c199  ti_sysbios_knl_Mailbox_Params__init__S                                    
1001c1a5  ti_sysbios_knl_Queue_dequeue__E                                           
1001c1b1  ti_sysbios_knl_Queue_enqueue__E                                           
1001c1bd  ti_sysbios_knl_Semaphore_Params__init__S                                  
1001c1c9  ti_sysbios_knl_Swi_Params__init__S                                        
1001c1d5  ti_sysbios_knl_Task_Params__init__S                                       
1001c1e1  ti_sysbios_knl_Task_self__E                                               
1001c1ed  ti_sysbios_hal_Hwi_Instance_finalize__E                                   
1001c1f7  ti_sysbios_family_arm_m3_Hwi_doSwiRestore__I                              
1001c1ff  ti_sysbios_family_arm_m3_Hwi_startup__E                                   
1001c1ff  ti_sysbios_hal_Hwi_HwiProxy_startup__E__mangled__                         
1001c207  ti_sysbios_knl_Idle_loop__E                                               
1001c20f  ti_sysbios_family_arm_m3_Hwi_doTaskRestore__I                             
1001c215  HwiP_restore                                                              
1001c215  ti_sysbios_family_arm_m3_Hwi_restoreFxn__E                                
1001c21b  ti_sysbios_gates_GateHwi_leave__E                                         
1001c227  ti_sysbios_knl_Queue_Instance_init__E                                     
1001c22d  ti_sysbios_knl_Queue_elemClear__E                                         
1001c233  ti_sysbios_knl_Swi_Module_startup__E                                      
1001c239  ti_sysbios_knl_Swi_startup__E                                             
1001c23f  ti_sysbios_knl_Task_enable__E                                             
1001c245  ti_sysbios_BIOS_RtsGateProxy_enter__E                                     
1001c249  ti_sysbios_BIOS_RtsGateProxy_leave__E                                     
1001c24d  ti_sysbios_family_arm_cc26xx_Timer_getExpiredTicks__E                     
1001c251  ti_sysbios_family_arm_cc26xx_Timer_getPeriod__E                           
1001c255  ti_sysbios_family_arm_cc26xx_Timer_setPeriod__E                           
1001c259  ti_sysbios_family_arm_m3_Hwi_delete                                       
1001c25d  ti_sysbios_family_arm_m3_Hwi_destruct                                     
1001c261  ti_sysbios_family_arm_m3_TaskSupport_Module__startupDone__S               
1001c261  ti_sysbios_knl_Task_SupportProxy_Module__startupDone__S__mangled__        
1001c265  ti_sysbios_gates_GateHwi_query__E                                         
1001c265  xdc_runtime_Main_Module_GateProxy_query__E                                
1001c265  xdc_runtime_System_Module_GateProxy_query__E                              
1001c265  xdc_runtime_System_Module_GateProxy_query__E__mangled__                   
1001c269  ti_sysbios_gates_GateMutex_delete                                         
1001c26d  ti_sysbios_gates_GateMutex_destruct                                       
1001c271  ti_sysbios_BIOS_RtsGateProxy_query__E                                     
1001c271  ti_sysbios_BIOS_RtsGateProxy_query__E__mangled__                          
1001c271  ti_sysbios_gates_GateMutex_query__E                                       
1001c271  ti_sysbios_heaps_HeapMem_Module_GateProxy_query__E                        
1001c271  ti_sysbios_heaps_HeapMem_Module_GateProxy_query__E__mangled__             
1001c275  ti_sysbios_hal_Hwi_HwiProxy_Module__startupDone__S                        
1001c279  ti_sysbios_hal_Hwi_HwiProxy_delete                                        
1001c27d  ti_sysbios_hal_Hwi_HwiProxy_disableInterrupt__E                           
1001c27d  ti_sysbios_hal_Hwi_disableInterrupt__E                                    
1001c27d  ti_sysbios_hal_Hwi_disableInterrupt__E                                    
1001c281  ti_sysbios_hal_Hwi_HwiProxy_enableInterrupt__E                            
1001c281  ti_sysbios_hal_Hwi_enableInterrupt__E                                     
1001c281  ti_sysbios_hal_Hwi_enableInterrupt__E                                     
1001c285  ti_sysbios_hal_Hwi_HwiProxy_getStackInfo__E                               
1001c285  ti_sysbios_hal_Hwi_getStackInfo__E                                        
1001c285  ti_sysbios_hal_Hwi_getStackInfo__E                                        
1001c289  ti_sysbios_hal_Hwi_HwiProxy_startup__E                                    
1001c289  ti_sysbios_hal_Hwi_startup__E                                             
1001c289  ti_sysbios_hal_Hwi_startup__E                                             
1001c28d  ti_sysbios_hal_Hwi_HwiProxy_switchFromBootStack__E                        
1001c291  ti_sysbios_hal_Hwi_delete                                                 
1001c295  ti_sysbios_hal_Hwi_switchFromBootStack__E                                 
1001c295  ti_sysbios_hal_Hwi_switchFromBootStack__E                                 
1001c299  ti_sysbios_heaps_HeapMem_Module_GateProxy_enter__E                        
1001c29d  ti_sysbios_heaps_HeapMem_Module_GateProxy_leave__E                        
1001c2a1  ti_sysbios_heaps_HeapMem_isBlocking__E                                    
1001c2a5  ti_sysbios_knl_Clock_TimerProxy_Module__startupDone__S                    
1001c2a9  ti_sysbios_knl_Clock_TimerProxy_getExpiredTicks__E                        
1001c2ad  ti_sysbios_knl_Clock_TimerProxy_getPeriod__E                              
1001c2b1  ti_sysbios_knl_Clock_delete                                               
1001c2b5  ti_sysbios_knl_Clock_destruct                                             
1001c2b9  ti_sysbios_knl_Clock_removeI__E                                           
1001c2bd  ti_sysbios_knl_Clock_setTimeout__E                                        
1001c2c1  ti_sysbios_knl_Mailbox_delete                                             
1001c2c5  ti_sysbios_knl_Mailbox_destruct                                           
1001c2c9  ti_sysbios_knl_Queue_delete                                               
1001c2cd  ti_sysbios_knl_Queue_destruct                                             
1001c2d1  ti_sysbios_knl_Queue_head__E                                              
1001c2d5  ti_sysbios_knl_Queue_next__E                                              
1001c2d9  ti_sysbios_knl_Semaphore_delete                                           
1001c2dd  ti_sysbios_knl_Semaphore_destruct                                         
1001c2e1  ti_sysbios_knl_Swi_delete                                                 
1001c2e5  ti_sysbios_knl_Swi_destruct                                               
1001c2e9  ti_sysbios_knl_Swi_postInit__I                                            
1001c2ed  ti_sysbios_knl_Task_SupportProxy_Module__startupDone__S                   
1001c2f1  ti_sysbios_knl_Task_SupportProxy_getStackAlignment__E                     
1001c2f5  ti_sysbios_knl_Task_SupportProxy_start__E                                 
1001c2f9  ti_sysbios_knl_Task_SupportProxy_swap__E                                  
1001c2fd  ti_sysbios_knl_Task_delete                                                
1001c301  ti_sysbios_knl_Task_destruct                                              
1001c305  ti_sysbios_knl_Task_startup__E                                            
1001c309  xdc_runtime_Startup_startMods__I                                          
1001c401  xdc_runtime_Core_createObject__I                                          
1001c483  xdc_runtime_Error_policySpin__E                                           
1001c485  xdc_runtime_Memory_alloc__E                                               
1001c4f5  xdc_runtime_Core_deleteObject__I                                          
1001c555  xdc_runtime_Startup_exec__E                                               
1001c5a5  xdc_runtime_Assert_raise__I                                               
1001c5ed  xdc_runtime_Core_assignParams__I                                          
1001c635  xdc_runtime_Core_constructObject__I                                       
1001c67d  xdc_runtime_System_atexit__E                                              
1001c6b5  xdc_runtime_System_processAtExit__E                                       
1001c6e9  xdc_runtime_Core_assignLabel__I                                           
1001c719  xdc_runtime_Text_cordText__E                                              
1001c745  xdc_runtime_System_abort__E                                               
1001c765  xdc_runtime_Error_raiseX__E                                               
1001c781  xdc_runtime_Memory_valloc__E                                              
1001c79d  xdc_runtime_Core_destructObject__I                                        
1001c7b5  xdc_runtime_Error_check__E                                                
1001c7cd  xdc_runtime_System_exit__E                                                
1001c7e5  xdc_runtime_Text_ropeText__E                                              
1001c7fd  xdc_runtime_Memory_free__E                                                
1001c80d  xdc_runtime_SysCallback_abort__E                                          
1001c80d  xdc_runtime_System_SupportProxy_abort__E                                  
1001c81d  xdc_runtime_SysCallback_exit__E                                           
1001c81d  xdc_runtime_System_SupportProxy_exit__E                                   
1001c82d  xdc_runtime_Timestamp_SupportProxy_get32__E                               
1001c82d  xdc_runtime_Timestamp_get32__E                                            
1001c82d  xdc_runtime_Timestamp_get32__E                                            
1001c849  xdc_runtime_Memory_calloc__E                                              
1001c855  xdc_runtime_Memory_getMaxDefaultTypeAlign__E                              
1001c875  xdc_runtime_Gate_leaveSystem__E                                           
1001c87b  xdc_runtime_System_Module_startup__E                                      
1001c881  xdc_runtime_Gate_enterSystem__E                                           
1001c885  xdc_runtime_Memory_HeapProxy_alloc__E                                     
1001c889  xdc_runtime_Memory_HeapProxy_free__E                                      
1001c88d  xdc_runtime_System_Module_GateProxy_enter__E                              
1001c891  xdc_runtime_System_Module_GateProxy_leave__E                              
1001c895  xdc_runtime_System_abortSpin__E                                           
1001c897  xdc_runtime_System_exitSpin__E                                            
1001c899  ti_sysbios_family_arm_m3_Hwi_dispatch__I                                  
1001c969  ti_sysbios_family_arm_m3_TaskSupport_buildTaskStack                       
1001c9b5  ti_sysbios_family_arm_m3_Hwi_initStacks__E                                
1001c9fd  ti_sysbios_family_arm_m3_Hwi_excHandlerAsm__I                             
1001ca1d  ti_sysbios_family_xxx_Hwi_switchAndRunFunc                                
1001ca3b  ti_sysbios_family_arm_m3_Hwi_pendSV__I                                    
1001ca53  ti_sysbios_family_arm_m3_Hwi_return                                       
1001ca55  ti_sysbios_family_arm_m3_TaskSupport_glue                                 
1001ca65  ti_sysbios_family_arm_m3_TaskSupport_swap__E                              
1001ca65  ti_sysbios_knl_Task_SupportProxy_swap__E__mangled__                       
1001ca6d  ti_sysbios_knl_Task_swapReturn                                            
1001ca97  ti_sysbios_rom_cortexm_cc13xx_CC13xx_getRevision__E                       
20000000  ti_sysbios_family_arm_m3_Hwi_ramVectors                                   
20000100  ti_sysbios_knl_Task_Module__state__V                                      
20000144  ti_sysbios_family_arm_m3_Hwi_Module__state__V                             
20000178  ti_sysbios_knl_Clock_Module__state__V                                     
200001a4  ti_sysbios_BIOS_Module__state__V                                          
200001c8  ti_sysbios_knl_Swi_Module__state__V                                       
200001e4  ti_sysbios_family_arm_cc26xx_Timer_Module__state__V                       
200001ec  ti_sysbios_family_arm_cc26xx_TimestampProvider_Module__state__V           
200001f0  xdc_runtime_Startup_Module__state__V                                      
200001f8  xdc_runtime_System_Module__state__V                                       
20000200  xdc_runtime_Memory_Module__state__V                                       
20000d18  ti_sysbios_knl_Task_Instance_State_0_stack__A                             
20000f18  uartCC26XXObjects                                                         
20001110  ti_sysbios_family_arm_m3_Hwi_dispatchTable                                
200014b0  nodeRadioTask                                                             
20001500  nodeTask                                                                  
20001650  fastReportTimeoutClock                                                    
20001674  uartCC26XXRingBuffer                                                      
2000173c  radioAccessSem                                                            
20001758  radioResultSem                                                            
200017e4  nodeEvent                                                                 
200017f8  radioOperationEvent                                                       
2000184c  displayUartObject                                                         
20001858  PowerCC26XX_taskKey                                                       
2000185c  PowerCC26XX_swiKey                                                        
20001870  ClockP_tickPeriod                                                         
20001878  driverlib_release_0_49471                                                 
20001880  __primary_heap_start__                                                    
20002880  __primary_heap_end__                                                      
20002880  pinUpperBound                                                             
20002884  pinLowerBound                                                             
20002918  pinHandleTable                                                            
20002994  PowerCC26XX_module                                                        
20002aa8  pOverrides_sl_lr                                                          
20002b10  pOverrides_hsm                                                            
20002b70  pOverrides_lrm                                                            
20002bcc  pOverrides_ook                                                            
20002c80  pOverrides_fsk                                                            
20002cd8  ti_sysbios_knl_Task_Object__table__V                                      
20002d24  main_func_sp                                                              
20002d28  ti_sysbios_family_arm_cc26xx_Timer_Object__table__V                       
20002d70  RF_pProp_fsk                                                              
20002d74  RF_pProp_lrm                                                              
20002d78  RF_pProp_ook                                                              
20002d7c  RF_pProp_hsm                                                              
20002d80  RF_pProp_sl_lr                                                            
20002d84  RF_pProp_2_4G_fsk                                                         
20002d88  RF_pCmdPropRadioDivSetup_fsk                                              
20002d8c  RF_pCmdPropRadioDivSetup_lrm                                              
20002d90  RF_pCmdPropRadioDivSetup_ook                                              
20002d94  RF_pCmdRadioSetup_hsm                                                     
20002d98  RF_pCmdPropRadioDivSetup_sl_lr                                            
20002d9c  RF_pCmdPropRadioSetup_2_4G_fsk                                            
20002da0  RF_pCmdTxHS                                                               
20002da4  RF_pCmdRxHS                                                               
20002da8  RF_pCmdFs_preDef                                                          
20002dac  RF_pCmdPropTx_preDef                                                      
20002db0  RF_pCmdPropRxAdv_preDef                                                   
20002db4  ti_sysbios_gates_GateMutex_Object__table__V                               
20002dec  RF_cmdPropRxAdv_preDef                                                    
20002e1c  ti_sysbios_knl_Swi_Module_State_0_readyQ__A                               
20002e4c  ti_sysbios_knl_Swi_Object__table__V                                       
20002e7c  ti_sysbios_knl_Task_Module_State_0_readyQ__A                              
20002eac  RF_cmdPropRadioDivSetup                                                   
20002ed4  RF_cmdPropRadioDivSetup_fsk                                               
20002efc  RF_cmdPropRadioDivSetup_lrm                                               
20002f24  RF_cmdPropRadioDivSetup_ook                                               
20002f4c  RF_cmdPropRadioDivSetup_sl_lr                                             
20002f74  RF_cmdRxHS                                                                
20002f98  ti_sysbios_knl_Clock_Object__table__V                                     
20002fb8  xdc_runtime_Error_IgnoreBlock                                             
20002ff4  RF_cmdFs                                                                  
2000300c  RF_cmdFs_preDef                                                           
20003024  RF_cmdPropTx                                                              
2000303c  RF_cmdPropTx_preDef                                                       
20003054  RF_cmdRadioSetup_hsm                                                      
20003084  shapeovr                                                                  
2000309c  ti_sysbios_family_arm_m3_Hwi_Object__table__V                             
200030b4  ti_sysbios_heaps_HeapMem_Object__table__V                                 
200030cc  RF_cmdTxHS                                                                
200030e0  RF_prop                                                                   
200030f0  RF_prop_fsk                                                               
20003100  RF_prop_hsm                                                               
20003110  RF_prop_lrm                                                               
20003120  RF_prop_ook                                                               
20003130  RF_prop_sl_lr                                                             
2000315c  _lock                                                                     
20003160  _unlock                                                                   
20003164  buttonPinTable                                                            
2000316c  pinTable                                                                  
20003174  ti_sysbios_family_arm_m3_Hwi_Module__root__V                              
2000317c  ti_sysbios_gates_GateHwi_Module__root__V                                  
20003184  ti_sysbios_gates_GateMutex_Module__root__V                                
2000318c  ti_sysbios_hal_Hwi_Module__root__V                                        
20003194  ti_sysbios_heaps_HeapMem_Module__root__V                                  
2000319c  ti_sysbios_knl_Clock_Module__root__V                                      
200031a4  ti_sysbios_knl_Event_Module__root__V                                      
200031ac  ti_sysbios_knl_Mailbox_Module__root__V                                    
200031b4  ti_sysbios_knl_Queue_Module__root__V                                      
200031bc  ti_sysbios_knl_Semaphore_Module__root__V                                  
200031c4  ti_sysbios_knl_Swi_Module__root__V                                        
200031cc  ti_sysbios_knl_Task_Module__root__V                                       
200031d4  xdc_runtime_System_Module_State_0_atexitHandlers__A                       
200031dc  ti_sysbios_family_arm_m3_Hwi_Module_State_0_excContext__A                 
200031e0  ti_sysbios_family_arm_m3_Hwi_Module_State_0_excStack__A                   
200031e4  ti_sysbios_knl_Task_Module_State_0_idleTask__A                            
200031e8  ti_sysbios_family_arm_m3_Hwi_Module_State_0_excActive__A                  
20004c00  __stack                                                                   
20005000  __STACK_END                                                               
e000e000  ti_sysbios_family_arm_m3_Hwi_nvic                                         
ffffffff  __TI_pprof_out_hndl                                                       
ffffffff  __TI_prof_data_size                                                       
ffffffff  __TI_prof_data_start                                                      
ffffffff  __binit__                                                                 
ffffffff  __c_args__                                                                
ffffffff  binit                                                                     
UNDEFED   SHT$$INIT_ARRAY$$Base                                                     
UNDEFED   SHT$$INIT_ARRAY$$Limit                                                    

[940 symbols]
