******************************************************************************
                  TI ARM Linker PC v16.9.7                     
******************************************************************************
>> Linked Tue Mar 27 18:16:12 2018

OUTPUT FILE NAME:   <Thermostat_CC1350_Node_2.out>
ENTRY POINT SYMBOL: "ResetISR"  address: 0000aecd


MEMORY CONFIGURATION

         name            origin    length      used     unused   attr    fill
----------------------  --------  ---------  --------  --------  ----  --------
  FLASH                 00000000   00020000  00012862  0000d79e  R  X
  SRAM                  20000000   00005000  0000411f  00000ee1  RW X


SEGMENT ALLOCATION MAP

run origin  load origin   length   init length attrs members
----------  ----------- ---------- ----------- ----- -------
00000000    00000000    00012810   00012810    r-x
  00000000    00000000    0000003c   0000003c    r-- .resetVecs
  0000003c    0000003c    00000fc4   00000fc4    r-x .text.1
  00001000    00001000    0000003c   0000003c    r-- .const:ti_sysbios_knl_Task_Object__PARAMS__C
  0000103c    0000103c    00000034   00000034    r-- .const:ti_sysbios_knl_Mailbox_Object__PARAMS__C
  00001070    00001070    00000030   00000030    r-- .const:ti_sysbios_family_arm_m3_Hwi_Object__PARAMS__C
  000010a0    000010a0    0000002c   0000002c    r-- .const:ti_sysbios_hal_Hwi_Object__PARAMS__C
  000010cc    000010cc    00000028   00000028    r-- .const:ti_sysbios_heaps_HeapMem_Module__FXNS__C
  000010f4    000010f4    00000028   00000028    r-- .const:ti_sysbios_knl_Swi_Object__PARAMS__C
  0000111c    0000111c    00000024   00000024    r-- .const:ti_sysbios_gates_GateHwi_Module__FXNS__C
  00001140    00001140    00000024   00000024    r-- .const:ti_sysbios_gates_GateMutex_Module__FXNS__C
  00001164    00001164    00000024   00000024    r-- .const:ti_sysbios_heaps_HeapMem_Object__PARAMS__C
  00001188    00001188    00000024   00000024    r-- .const:ti_sysbios_knl_Clock_Object__PARAMS__C
  000011ac    000011ac    00000024   00000024    r-- .const:ti_sysbios_knl_Semaphore_Object__PARAMS__C
  000011d0    000011d0    00000020   00000020    r-- .const:ti_sysbios_family_arm_m3_Hwi_Object__DESC__C
  000011f0    000011f0    00000020   00000020    r-- .const:ti_sysbios_gates_GateHwi_Object__DESC__C
  00001210    00001210    00000020   00000020    r-- .const:ti_sysbios_gates_GateMutex_Object__DESC__C
  00001230    00001230    00000020   00000020    r-- .const:ti_sysbios_hal_Hwi_Object__DESC__C
  00001250    00001250    00000020   00000020    r-- .const:ti_sysbios_heaps_HeapMem_Object__DESC__C
  00001270    00001270    00000020   00000020    r-- .const:ti_sysbios_knl_Clock_Object__DESC__C
  00001290    00001290    00000020   00000020    r-- .const:ti_sysbios_knl_Mailbox_Object__DESC__C
  000012b0    000012b0    00000020   00000020    r-- .const:ti_sysbios_knl_Queue_Object__DESC__C
  000012d0    000012d0    00000020   00000020    r-- .const:ti_sysbios_knl_Semaphore_Object__DESC__C
  000012f0    000012f0    00000020   00000020    r-- .const:ti_sysbios_knl_Swi_Object__DESC__C
  00001310    00001310    00000020   00000020    r-- .const:ti_sysbios_knl_Task_Object__DESC__C
  00001330    00001330    00000018   00000018    r-- .const:ti_sysbios_gates_GateHwi_Object__PARAMS__C
  00001348    00001348    00000018   00000018    r-- .const:ti_sysbios_gates_GateMutex_Object__PARAMS__C
  00001360    00001360    00000018   00000018    r-- .const:ti_sysbios_knl_Queue_Object__PARAMS__C
  00001378    00001378    00000008   00000008    r-- .const:ti_sysbios_knl_Idle_funcList__C
  00001380    00001380    00000004   00000004    r-x .text.2
  00001384    00001384    00000004   00000004    r-- .const:ti_sysbios_family_arm_cc26xx_Timer_startupNeeded__C
  00001388    00001388    00000004   00000004    r-- .const:ti_sysbios_family_arm_m3_Hwi_E_alreadyDefined__C
  0000138c    0000138c    00000004   00000004    r-- .const:ti_sysbios_family_arm_m3_Hwi_E_hwiLimitExceeded__C
  00001390    00001390    00000004   00000004    r-- .const:ti_sysbios_family_arm_m3_Hwi_NUM_INTERRUPTS__C
  00001394    00001394    00000004   00000004    r-- .const:ti_sysbios_family_arm_m3_Hwi_Object__count__C
  00001398    00001398    00000004   00000004    r-- .const:ti_sysbios_family_arm_m3_Hwi_Object__table__C
  0000139c    0000139c    00000004   00000004    r-- .const:ti_sysbios_family_arm_m3_Hwi_ccr__C
  000013a0    000013a0    00000004   00000004    r-- .const:ti_sysbios_family_arm_m3_Hwi_excHandlerFunc__C
  000013a4    000013a4    00000004   00000004    r-- .const:ti_sysbios_family_arm_m3_Hwi_nullIsrFunc__C
  000013a8    000013a8    00000004   00000004    r-- .const:ti_sysbios_family_arm_m3_Hwi_numSparseInterrupts__C
  000013ac    000013ac    00000004   00000004    r-- .const:ti_sysbios_family_arm_m3_Hwi_priGroup__C
  000013b0    000013b0    00000004   00000004    r-- .const:ti_sysbios_family_arm_m3_TaskSupport_stackAlignment__C
  000013b4    000013b4    00000004   00000004    r-- .const:ti_sysbios_heaps_HeapMem_E_memory__C
  000013b8    000013b8    00000004   00000004    r-- .const:ti_sysbios_heaps_HeapMem_Module__gateObj__C
  000013bc    000013bc    00000004   00000004    r-- .const:ti_sysbios_heaps_HeapMem_Object__count__C
  000013c0    000013c0    00000004   00000004    r-- .const:ti_sysbios_heaps_HeapMem_Object__table__C
  000013c4    000013c4    00000004   00000004    r-- .const:ti_sysbios_heaps_HeapMem_reqAlign__C
  000013c8    000013c8    00000004   00000004    r-- .const:ti_sysbios_knl_Clock_serviceMargin__C
  000013cc    000013cc    00000004   00000004    r-- .const:ti_sysbios_knl_Mailbox_Object__count__C
  000013d0    000013d0    00000004   00000004    r-- .const:ti_sysbios_knl_Mailbox_Object__table__C
  000013d4    000013d4    00000004   00000004    r-- .const:ti_sysbios_knl_Mailbox_maxTypeAlign__C
  000013d8    000013d8    00000004   00000004    r-- .const:ti_sysbios_knl_Queue_Object__count__C
  000013dc    000013dc    00000004   00000004    r-- .const:ti_sysbios_knl_Queue_Object__table__C
  000013e0    000013e0    00000004   00000004    r-- .const:ti_sysbios_knl_Swi_Object__count__C
  000013e4    000013e4    00000004   00000004    r-- .const:ti_sysbios_knl_Swi_Object__table__C
  000013e8    000013e8    00000004   00000004    r-- .const:ti_sysbios_knl_Swi_numPriorities__C
  000013ec    000013ec    00000004   00000004    r-- .const:ti_sysbios_knl_Task_Object__count__C
  000013f0    000013f0    00000004   00000004    r-- .const:ti_sysbios_knl_Task_Object__table__C
  000013f4    000013f4    00000004   00000004    r-- .const:ti_sysbios_knl_Task_allBlockedFunc__C
  000013f8    000013f8    00000004   00000004    r-- .const:ti_sysbios_knl_Task_defaultStackHeap__C
  000013fc    000013fc    00000004   00000004    r-- .const:ti_sysbios_knl_Task_defaultStackSize__C
  00001400    00001400    00000004   00000004    r-- .const:ti_sysbios_knl_Task_numConstructedTasks__C
  00001404    00001404    00000002   00000002    r-x .text.3
  00001406    00001406    00000002   00000002    r-- .const:ti_sysbios_family_arm_cc26xx_Timer_Module__id__C
  00001408    00001408    00000002   00000002    r-- .const:ti_sysbios_family_arm_cc26xx_TimestampProvider_useClockTimer__C
  0000140a    0000140a    00000002   00000002    r-- .const:ti_sysbios_family_arm_m3_Hwi_Module__id__C
  0000140c    0000140c    00000002   00000002    r-- .const:ti_sysbios_gates_GateHwi_Module__id__C
  0000140e    0000140e    00000002   00000002    r-- .const:ti_sysbios_gates_GateMutex_Module__id__C
  00001410    00001410    00000002   00000002    r-- .const:ti_sysbios_heaps_HeapMem_Module__id__C
  00001412    00001412    00000002   00000002    r-- .const:ti_sysbios_knl_Task_initStackFlag__C
  00001414    00001414    00000001   00000001    r-- .const:ti_sysbios_knl_Clock_tickMode__C
  00001418    00001418    00000008   00000008    r-- .const:xdc_runtime_Startup_firstFxns__C
  00001420    00001420    00000008   00000008    r-- .const:xdc_runtime_Startup_lastFxns__C
  00001428    00001428    00000004   00000004    r-- .const:xdc_runtime_Assert_E_assertFailed__C
  0000142c    0000142c    00000004   00000004    r-- .const:xdc_runtime_Error_E_memory__C
  00001430    00001430    00000004   00000004    r-- .const:xdc_runtime_Error_policyFxn__C
  00001434    00001434    00000004   00000004    r-- .const:xdc_runtime_IGateProvider_Interface__BASE__C
  00001438    00001438    00000004   00000004    r-- .const:xdc_runtime_IHeap_Interface__BASE__C
  0000143c    0000143c    00000004   00000004    r-- .const:xdc_runtime_IModule_Interface__BASE__C
  00001440    00001440    00000004   00000004    r-- .const:xdc_runtime_Main_Module__diagsEnabled__C
  00001444    00001444    00000004   00000004    r-- .const:xdc_runtime_Main_Module__diagsIncluded__C
  00001448    00001448    00000004   00000004    r-- .const:xdc_runtime_Main_Module__diagsMask__C
  0000144c    0000144c    00000004   00000004    r-- .const:xdc_runtime_Memory_defaultHeapInstance__C
  00001450    00001450    00000004   00000004    r-- .const:xdc_runtime_Startup_execImpl__C
  00001454    00001454    00000004   00000004    r-- .const:xdc_runtime_Startup_maxPasses__C
  00001458    00001458    00000004   00000004    r-- .const:xdc_runtime_Startup_sfxnRts__C
  0000145c    0000145c    00000004   00000004    r-- .const:xdc_runtime_Startup_sfxnTab__C
  00001460    00001460    00000004   00000004    r-- .const:xdc_runtime_Startup_startModsFxn__C
  00001464    00001464    00000004   00000004    r-- .const:xdc_runtime_SysCallback_abortFxn__C
  00001468    00001468    00000004   00000004    r-- .const:xdc_runtime_SysCallback_exitFxn__C
  0000146c    0000146c    00000004   00000004    r-- .const:xdc_runtime_System_abortFxn__C
  00001470    00001470    00000004   00000004    r-- .const:xdc_runtime_System_exitFxn__C
  00001474    00001474    00000004   00000004    r-- .const:xdc_runtime_System_maxAtexitHandlers__C
  00001478    00001478    00000004   00000004    r-- .const:xdc_runtime_Text_charTab__C
  0000147c    0000147c    00000004   00000004    r-- .const:xdc_runtime_Text_nameEmpty__C
  00001480    00001480    00000004   00000004    r-- .const:xdc_runtime_Text_nameStatic__C
  00001484    00001484    00000004   00000004    r-- .const:xdc_runtime_Text_nameUnknown__C
  00001488    00001488    00000002   00000002    r-- .const:xdc_runtime_Main_Module__id__C
  0000148a    0000148a    00000002   00000002    r-- .const:xdc_runtime_Memory_Module__id__C
  0000148c    0000148c    00000002   00000002    r-- .const:xdc_runtime_Text_charCnt__C
  0000148e    0000148e    00000002   00000002    r-- .const:xdc_runtime_Text_isLoaded__C
  00001490    00001490    00000001   00000001    r-- .const:xdc_runtime_Error_policy__C
  00001494    00001494    00000004   00000004    r-- .const:ti_sysbios_rom_ROM_AONRTCChannelEnable
  00001498    00001498    00000004   00000004    r-- .const:ti_sysbios_rom_ROM_AONRTCCompareValueSet
  0000149c    0000149c    00000004   00000004    r-- .const:ti_sysbios_rom_ROM_AONRTCCurrentCompareValueGet
  000014a0    000014a0    00000004   00000004    r-- .const:ti_sysbios_rom_ROM_AONRTCEventClear
  000014a4    000014a4    00000004   00000004    r-- .const:ti_sysbios_rom_ROM_ti_sysbios_family_arm_cc26xx_Timer_getCount64__E
  000014a8    000014a8    00000004   00000004    r-- .const:ti_sysbios_rom_ROM_ti_sysbios_family_arm_cc26xx_Timer_getCurrentTick__E
  000014ac    000014ac    00000004   00000004    r-- .const:ti_sysbios_rom_ROM_ti_sysbios_family_arm_cc26xx_Timer_getMaxTicks__E
  000014b0    000014b0    00000004   00000004    r-- .const:ti_sysbios_rom_ROM_ti_sysbios_family_arm_cc26xx_Timer_initDevice__I
  000014b4    000014b4    00000004   00000004    r-- .const:ti_sysbios_rom_ROM_ti_sysbios_family_arm_cc26xx_Timer_setNextTick__E
  000014b8    000014b8    00000004   00000004    r-- .const:ti_sysbios_rom_ROM_ti_sysbios_family_arm_cc26xx_Timer_setThreshold__I
  000014bc    000014bc    00000004   00000004    r-- .const:ti_sysbios_rom_ROM_ti_sysbios_family_arm_cc26xx_Timer_start__E
  000014c0    000014c0    00000004   00000004    r-- .const:ti_sysbios_rom_ROM_ti_sysbios_family_arm_cc26xx_TimestampProvider_get32__E
  000014c4    000014c4    00000004   00000004    r-- .const:ti_sysbios_rom_ROM_xdc_runtime_Startup_getState__I
  000014c8    000014c8    00000004   00000004    r-- .const:ti_sysbios_rom_ROM_xdc_runtime_System_SupportProxy_abort__E
  000014cc    000014cc    00000004   00000004    r-- .const:ti_sysbios_rom_ROM_xdc_runtime_System_SupportProxy_exit__E
  000014d0    000014d0    00000004   00000004    r-- .const:ti_sysbios_gates_GateMutex_Instance_State_sem__O
  000014d4    000014d4    00000004   00000004    r-- .const:ti_sysbios_knl_Clock_Module_State_clockQ__O
  000014d8    000014d8    00000004   00000004    r-- .const:ti_sysbios_knl_Mailbox_Instance_State_dataQue__O
  000014dc    000014dc    00000004   00000004    r-- .const:ti_sysbios_knl_Mailbox_Instance_State_dataSem__O
  000014e0    000014e0    00000004   00000004    r-- .const:ti_sysbios_knl_Mailbox_Instance_State_freeQue__O
  000014e4    000014e4    00000004   00000004    r-- .const:ti_sysbios_knl_Mailbox_Instance_State_freeSem__O
  000014e8    000014e8    00000004   00000004    r-- .const:ti_sysbios_knl_Semaphore_Instance_State_pendQ__O
  000014ec    000014ec    00000004   00000004    r-- .const:ti_sysbios_knl_Task_Module_State_inactiveQ__O
  000014f0    000014f0    0000bb4c   0000bb4c    r-x .text.4
  0000d03c    0000d03c    00005254   00005254    r-- .const
  00012290    00012290    00000580   00000580    r-- .cinit
0001ffa8    0001ffa8    00000058   00000058    r--
  0001ffa8    0001ffa8    00000058   00000058    r-- .ccfg
20000100    20000100    00000104   00000000    rw-
  20000100    20000100    00000044   00000000    rw- .data:ti_sysbios_knl_Task_Module__state__V
  20000144    20000144    00000034   00000000    rw- .data:ti_sysbios_family_arm_m3_Hwi_Module__state__V
  20000178    20000178    0000002c   00000000    rw- .data:ti_sysbios_knl_Clock_Module__state__V
  200001a4    200001a4    00000024   00000000    rw- .data:ti_sysbios_BIOS_Module__state__V
  200001c8    200001c8    0000001c   00000000    rw- .data:ti_sysbios_knl_Swi_Module__state__V
  200001e4    200001e4    00000008   00000000    rw- .data:ti_sysbios_family_arm_cc26xx_Timer_Module__state__V
  200001ec    200001ec    00000004   00000000    rw- .data:ti_sysbios_family_arm_cc26xx_TimestampProvider_Module__state__V
  200001f0    200001f0    00000008   00000000    rw- .data:xdc_runtime_Startup_Module__state__V
  200001f8    200001f8    00000008   00000000    rw- .data:xdc_runtime_System_Module__state__V
  20000200    20000200    00000004   00000000    rw- .data:xdc_runtime_Memory_Module__state__V
20000430    20000430    00000010   00000000    rw-
  20000430    20000430    00000010   00000000    rw- .TI.bound:dmaSpi0RxControlTableEntry
20000440    20000440    00000010   00000000    rw-
  20000440    20000440    00000010   00000000    rw- .TI.bound:dmaSpi0TxControlTableEntry
20000500    20000500    00000010   00000000    rw-
  20000500    20000500    00000010   00000000    rw- .TI.bound:dmaSpi1RxControlTableEntry
20000510    20000510    00001f93   00000000    rw-
  20000510    20000510    00000010   00000000    rw- .TI.bound:dmaSpi1TxControlTableEntry
  20000520    20000520    00001f83   00000000    rw- .bss
200024a8    200024a8    00001000   00000000    r--
  200024a8    200024a8    00001000   00000000    r-- .priheap
200034a8    200034a8    00000b90   00000000    rw-
  200034a8    200034a8    00000b90   00000000    rw- .data
20004c00    20004c00    00000400   00000000    rw-
  20004c00    20004c00    00000400   00000000    rw- .stack


SECTION ALLOCATION MAP

 output                                  attributes/
section   page    origin      length       input sections
--------  ----  ----------  ----------   ----------------
.resetVecs 
*          0    00000000    0000003c     
                  00000000    0000003c     release_pem3.oem3 (.resetVecs)

.binit     0    00000000    00000000     

.text.1    0    0000003c    00000fc4     
                  0000003c    000003f0     EasyLink.obj (.text:EasyLink_configure)
                  0000042c    00000008     (.tramp.ti_sysbios_knl_Semaphore_post__E.1)
                  00000434    00000008     (.tramp.ti_sysbios_knl_Semaphore_create.1)
                  0000043c    000003f0     rf_multiMode_cc13x0.aem3 : RFCC26XX_multiMode.oem3 (.text:fsmActiveState)
                  0000082c    00000008     (.tramp.ti_sysbios_family_arm_m3_Hwi_restoreFxn__E.1)
                  00000834    000003c0     NodeRadioTask.obj (.text:sendDmPacket)
                  00000bf4    00000008     (.tramp.xdc_runtime_System_abort__E.1)
                  00000bfc    0000033c     rom_sysbios.aem3 : rom_sysbios.obj (.text:xdc_runtime_System_doPrint__I)
                  00000f38    000000c4     display.aem3 : DisplaySharp.oem3 (.text:DisplaySharp_control)
                  00000ffc    00000004     dpl_cc13x0.aem3 : PowerCC26XX_tirtos.oem3 (.text:CPUwfi)

.const:ti_sysbios_knl_Task_Object__PARAMS__C 
*          0    00001000    0000003c     
                  00001000    0000003c     release_pem3.oem3 (.const:ti_sysbios_knl_Task_Object__PARAMS__C)

.const:ti_sysbios_knl_Mailbox_Object__PARAMS__C 
*          0    0000103c    00000034     
                  0000103c    00000034     release_pem3.oem3 (.const:ti_sysbios_knl_Mailbox_Object__PARAMS__C)

.const:ti_sysbios_family_arm_m3_Hwi_Object__PARAMS__C 
*          0    00001070    00000030     
                  00001070    00000030     release_pem3.oem3 (.const:ti_sysbios_family_arm_m3_Hwi_Object__PARAMS__C)

.const:ti_sysbios_hal_Hwi_Object__PARAMS__C 
*          0    000010a0    0000002c     
                  000010a0    0000002c     release_pem3.oem3 (.const:ti_sysbios_hal_Hwi_Object__PARAMS__C)

.const:ti_sysbios_heaps_HeapMem_Module__FXNS__C 
*          0    000010cc    00000028     
                  000010cc    00000028     release_pem3.oem3 (.const:ti_sysbios_heaps_HeapMem_Module__FXNS__C)

.const:ti_sysbios_knl_Swi_Object__PARAMS__C 
*          0    000010f4    00000028     
                  000010f4    00000028     release_pem3.oem3 (.const:ti_sysbios_knl_Swi_Object__PARAMS__C)

.const:ti_sysbios_gates_GateHwi_Module__FXNS__C 
*          0    0000111c    00000024     
                  0000111c    00000024     release_pem3.oem3 (.const:ti_sysbios_gates_GateHwi_Module__FXNS__C)

.const:ti_sysbios_gates_GateMutex_Module__FXNS__C 
*          0    00001140    00000024     
                  00001140    00000024     release_pem3.oem3 (.const:ti_sysbios_gates_GateMutex_Module__FXNS__C)

.const:ti_sysbios_heaps_HeapMem_Object__PARAMS__C 
*          0    00001164    00000024     
                  00001164    00000024     release_pem3.oem3 (.const:ti_sysbios_heaps_HeapMem_Object__PARAMS__C)

.const:ti_sysbios_knl_Clock_Object__PARAMS__C 
*          0    00001188    00000024     
                  00001188    00000024     release_pem3.oem3 (.const:ti_sysbios_knl_Clock_Object__PARAMS__C)

.const:ti_sysbios_knl_Semaphore_Object__PARAMS__C 
*          0    000011ac    00000024     
                  000011ac    00000024     release_pem3.oem3 (.const:ti_sysbios_knl_Semaphore_Object__PARAMS__C)

.const:ti_sysbios_family_arm_m3_Hwi_Object__DESC__C 
*          0    000011d0    00000020     
                  000011d0    00000020     release_pem3.oem3 (.const:ti_sysbios_family_arm_m3_Hwi_Object__DESC__C)

.const:ti_sysbios_gates_GateHwi_Object__DESC__C 
*          0    000011f0    00000020     
                  000011f0    00000020     release_pem3.oem3 (.const:ti_sysbios_gates_GateHwi_Object__DESC__C)

.const:ti_sysbios_gates_GateMutex_Object__DESC__C 
*          0    00001210    00000020     
                  00001210    00000020     release_pem3.oem3 (.const:ti_sysbios_gates_GateMutex_Object__DESC__C)

.const:ti_sysbios_hal_Hwi_Object__DESC__C 
*          0    00001230    00000020     
                  00001230    00000020     release_pem3.oem3 (.const:ti_sysbios_hal_Hwi_Object__DESC__C)

.const:ti_sysbios_heaps_HeapMem_Object__DESC__C 
*          0    00001250    00000020     
                  00001250    00000020     release_pem3.oem3 (.const:ti_sysbios_heaps_HeapMem_Object__DESC__C)

.const:ti_sysbios_knl_Clock_Object__DESC__C 
*          0    00001270    00000020     
                  00001270    00000020     release_pem3.oem3 (.const:ti_sysbios_knl_Clock_Object__DESC__C)

.const:ti_sysbios_knl_Mailbox_Object__DESC__C 
*          0    00001290    00000020     
                  00001290    00000020     release_pem3.oem3 (.const:ti_sysbios_knl_Mailbox_Object__DESC__C)

.const:ti_sysbios_knl_Queue_Object__DESC__C 
*          0    000012b0    00000020     
                  000012b0    00000020     release_pem3.oem3 (.const:ti_sysbios_knl_Queue_Object__DESC__C)

.const:ti_sysbios_knl_Semaphore_Object__DESC__C 
*          0    000012d0    00000020     
                  000012d0    00000020     release_pem3.oem3 (.const:ti_sysbios_knl_Semaphore_Object__DESC__C)

.const:ti_sysbios_knl_Swi_Object__DESC__C 
*          0    000012f0    00000020     
                  000012f0    00000020     release_pem3.oem3 (.const:ti_sysbios_knl_Swi_Object__DESC__C)

.const:ti_sysbios_knl_Task_Object__DESC__C 
*          0    00001310    00000020     
                  00001310    00000020     release_pem3.oem3 (.const:ti_sysbios_knl_Task_Object__DESC__C)

.const:ti_sysbios_gates_GateHwi_Object__PARAMS__C 
*          0    00001330    00000018     
                  00001330    00000018     release_pem3.oem3 (.const:ti_sysbios_gates_GateHwi_Object__PARAMS__C)

.const:ti_sysbios_gates_GateMutex_Object__PARAMS__C 
*          0    00001348    00000018     
                  00001348    00000018     release_pem3.oem3 (.const:ti_sysbios_gates_GateMutex_Object__PARAMS__C)

.const:ti_sysbios_knl_Queue_Object__PARAMS__C 
*          0    00001360    00000018     
                  00001360    00000018     release_pem3.oem3 (.const:ti_sysbios_knl_Queue_Object__PARAMS__C)

.const:ti_sysbios_knl_Idle_funcList__C 
*          0    00001378    00000008     
                  00001378    00000008     release_pem3.oem3 (.const:ti_sysbios_knl_Idle_funcList__C)

.text.2    0    00001380    00000004     
                  00001380    00000004     dpl_cc13x0.aem3 : ClockP_tirtos.oem3 (.text:ClockP_getTimeout)

.const:ti_sysbios_family_arm_cc26xx_Timer_startupNeeded__C 
*          0    00001384    00000004     
                  00001384    00000004     release_pem3.oem3 (.const:ti_sysbios_family_arm_cc26xx_Timer_startupNeeded__C)

.const:ti_sysbios_family_arm_m3_Hwi_E_alreadyDefined__C 
*          0    00001388    00000004     
                  00001388    00000004     release_pem3.oem3 (.const:ti_sysbios_family_arm_m3_Hwi_E_alreadyDefined__C)

.const:ti_sysbios_family_arm_m3_Hwi_E_hwiLimitExceeded__C 
*          0    0000138c    00000004     
                  0000138c    00000004     release_pem3.oem3 (.const:ti_sysbios_family_arm_m3_Hwi_E_hwiLimitExceeded__C)

.const:ti_sysbios_family_arm_m3_Hwi_NUM_INTERRUPTS__C 
*          0    00001390    00000004     
                  00001390    00000004     release_pem3.oem3 (.const:ti_sysbios_family_arm_m3_Hwi_NUM_INTERRUPTS__C)

.const:ti_sysbios_family_arm_m3_Hwi_Object__count__C 
*          0    00001394    00000004     
                  00001394    00000004     release_pem3.oem3 (.const:ti_sysbios_family_arm_m3_Hwi_Object__count__C)

.const:ti_sysbios_family_arm_m3_Hwi_Object__table__C 
*          0    00001398    00000004     
                  00001398    00000004     release_pem3.oem3 (.const:ti_sysbios_family_arm_m3_Hwi_Object__table__C)

.const:ti_sysbios_family_arm_m3_Hwi_ccr__C 
*          0    0000139c    00000004     
                  0000139c    00000004     release_pem3.oem3 (.const:ti_sysbios_family_arm_m3_Hwi_ccr__C)

.const:ti_sysbios_family_arm_m3_Hwi_excHandlerFunc__C 
*          0    000013a0    00000004     
                  000013a0    00000004     release_pem3.oem3 (.const:ti_sysbios_family_arm_m3_Hwi_excHandlerFunc__C)

.const:ti_sysbios_family_arm_m3_Hwi_nullIsrFunc__C 
*          0    000013a4    00000004     
                  000013a4    00000004     release_pem3.oem3 (.const:ti_sysbios_family_arm_m3_Hwi_nullIsrFunc__C)

.const:ti_sysbios_family_arm_m3_Hwi_numSparseInterrupts__C 
*          0    000013a8    00000004     
                  000013a8    00000004     release_pem3.oem3 (.const:ti_sysbios_family_arm_m3_Hwi_numSparseInterrupts__C)

.const:ti_sysbios_family_arm_m3_Hwi_priGroup__C 
*          0    000013ac    00000004     
                  000013ac    00000004     release_pem3.oem3 (.const:ti_sysbios_family_arm_m3_Hwi_priGroup__C)

.const:ti_sysbios_family_arm_m3_TaskSupport_stackAlignment__C 
*          0    000013b0    00000004     
                  000013b0    00000004     release_pem3.oem3 (.const:ti_sysbios_family_arm_m3_TaskSupport_stackAlignment__C)

.const:ti_sysbios_heaps_HeapMem_E_memory__C 
*          0    000013b4    00000004     
                  000013b4    00000004     release_pem3.oem3 (.const:ti_sysbios_heaps_HeapMem_E_memory__C)

.const:ti_sysbios_heaps_HeapMem_Module__gateObj__C 
*          0    000013b8    00000004     
                  000013b8    00000004     release_pem3.oem3 (.const:ti_sysbios_heaps_HeapMem_Module__gateObj__C)

.const:ti_sysbios_heaps_HeapMem_Object__count__C 
*          0    000013bc    00000004     
                  000013bc    00000004     release_pem3.oem3 (.const:ti_sysbios_heaps_HeapMem_Object__count__C)

.const:ti_sysbios_heaps_HeapMem_Object__table__C 
*          0    000013c0    00000004     
                  000013c0    00000004     release_pem3.oem3 (.const:ti_sysbios_heaps_HeapMem_Object__table__C)

.const:ti_sysbios_heaps_HeapMem_reqAlign__C 
*          0    000013c4    00000004     
                  000013c4    00000004     release_pem3.oem3 (.const:ti_sysbios_heaps_HeapMem_reqAlign__C)

.const:ti_sysbios_knl_Clock_serviceMargin__C 
*          0    000013c8    00000004     
                  000013c8    00000004     release_pem3.oem3 (.const:ti_sysbios_knl_Clock_serviceMargin__C)

.const:ti_sysbios_knl_Mailbox_Object__count__C 
*          0    000013cc    00000004     
                  000013cc    00000004     release_pem3.oem3 (.const:ti_sysbios_knl_Mailbox_Object__count__C)

.const:ti_sysbios_knl_Mailbox_Object__table__C 
*          0    000013d0    00000004     
                  000013d0    00000004     release_pem3.oem3 (.const:ti_sysbios_knl_Mailbox_Object__table__C)

.const:ti_sysbios_knl_Mailbox_maxTypeAlign__C 
*          0    000013d4    00000004     
                  000013d4    00000004     release_pem3.oem3 (.const:ti_sysbios_knl_Mailbox_maxTypeAlign__C)

.const:ti_sysbios_knl_Queue_Object__count__C 
*          0    000013d8    00000004     
                  000013d8    00000004     release_pem3.oem3 (.const:ti_sysbios_knl_Queue_Object__count__C)

.const:ti_sysbios_knl_Queue_Object__table__C 
*          0    000013dc    00000004     
                  000013dc    00000004     release_pem3.oem3 (.const:ti_sysbios_knl_Queue_Object__table__C)

.const:ti_sysbios_knl_Swi_Object__count__C 
*          0    000013e0    00000004     
                  000013e0    00000004     release_pem3.oem3 (.const:ti_sysbios_knl_Swi_Object__count__C)

.const:ti_sysbios_knl_Swi_Object__table__C 
*          0    000013e4    00000004     
                  000013e4    00000004     release_pem3.oem3 (.const:ti_sysbios_knl_Swi_Object__table__C)

.const:ti_sysbios_knl_Swi_numPriorities__C 
*          0    000013e8    00000004     
                  000013e8    00000004     release_pem3.oem3 (.const:ti_sysbios_knl_Swi_numPriorities__C)

.const:ti_sysbios_knl_Task_Object__count__C 
*          0    000013ec    00000004     
                  000013ec    00000004     release_pem3.oem3 (.const:ti_sysbios_knl_Task_Object__count__C)

.const:ti_sysbios_knl_Task_Object__table__C 
*          0    000013f0    00000004     
                  000013f0    00000004     release_pem3.oem3 (.const:ti_sysbios_knl_Task_Object__table__C)

.const:ti_sysbios_knl_Task_allBlockedFunc__C 
*          0    000013f4    00000004     
                  000013f4    00000004     release_pem3.oem3 (.const:ti_sysbios_knl_Task_allBlockedFunc__C)

.const:ti_sysbios_knl_Task_defaultStackHeap__C 
*          0    000013f8    00000004     
                  000013f8    00000004     release_pem3.oem3 (.const:ti_sysbios_knl_Task_defaultStackHeap__C)

.const:ti_sysbios_knl_Task_defaultStackSize__C 
*          0    000013fc    00000004     
                  000013fc    00000004     release_pem3.oem3 (.const:ti_sysbios_knl_Task_defaultStackSize__C)

.const:ti_sysbios_knl_Task_numConstructedTasks__C 
*          0    00001400    00000004     
                  00001400    00000004     release_pem3.oem3 (.const:ti_sysbios_knl_Task_numConstructedTasks__C)

.text.3    0    00001404    00000002     
                  00001404    00000002     display.aem3 : DisplaySharp.oem3 (.text:DisplaySharp_init)

.const:ti_sysbios_family_arm_cc26xx_Timer_Module__id__C 
*          0    00001406    00000002     
                  00001406    00000002     release_pem3.oem3 (.const:ti_sysbios_family_arm_cc26xx_Timer_Module__id__C)

.const:ti_sysbios_family_arm_cc26xx_TimestampProvider_useClockTimer__C 
*          0    00001408    00000002     
                  00001408    00000002     release_pem3.oem3 (.const:ti_sysbios_family_arm_cc26xx_TimestampProvider_useClockTimer__C)

.const:ti_sysbios_family_arm_m3_Hwi_Module__id__C 
*          0    0000140a    00000002     
                  0000140a    00000002     release_pem3.oem3 (.const:ti_sysbios_family_arm_m3_Hwi_Module__id__C)

.const:ti_sysbios_gates_GateHwi_Module__id__C 
*          0    0000140c    00000002     
                  0000140c    00000002     release_pem3.oem3 (.const:ti_sysbios_gates_GateHwi_Module__id__C)

.const:ti_sysbios_gates_GateMutex_Module__id__C 
*          0    0000140e    00000002     
                  0000140e    00000002     release_pem3.oem3 (.const:ti_sysbios_gates_GateMutex_Module__id__C)

.const:ti_sysbios_heaps_HeapMem_Module__id__C 
*          0    00001410    00000002     
                  00001410    00000002     release_pem3.oem3 (.const:ti_sysbios_heaps_HeapMem_Module__id__C)

.const:ti_sysbios_knl_Task_initStackFlag__C 
*          0    00001412    00000002     
                  00001412    00000002     release_pem3.oem3 (.const:ti_sysbios_knl_Task_initStackFlag__C)

.const:ti_sysbios_knl_Clock_tickMode__C 
*          0    00001414    00000001     
                  00001414    00000001     release_pem3.oem3 (.const:ti_sysbios_knl_Clock_tickMode__C)

.const:xdc_runtime_Startup_firstFxns__C 
*          0    00001418    00000008     
                  00001418    00000008     release_pem3.oem3 (.const:xdc_runtime_Startup_firstFxns__C)

.const:xdc_runtime_Startup_lastFxns__C 
*          0    00001420    00000008     
                  00001420    00000008     release_pem3.oem3 (.const:xdc_runtime_Startup_lastFxns__C)

.const:xdc_runtime_Assert_E_assertFailed__C 
*          0    00001428    00000004     
                  00001428    00000004     release_pem3.oem3 (.const:xdc_runtime_Assert_E_assertFailed__C)

.const:xdc_runtime_Error_E_memory__C 
*          0    0000142c    00000004     
                  0000142c    00000004     release_pem3.oem3 (.const:xdc_runtime_Error_E_memory__C)

.const:xdc_runtime_Error_policyFxn__C 
*          0    00001430    00000004     
                  00001430    00000004     release_pem3.oem3 (.const:xdc_runtime_Error_policyFxn__C)

.const:xdc_runtime_IGateProvider_Interface__BASE__C 
*          0    00001434    00000004     
                  00001434    00000004     release_pem3.oem3 (.const:xdc_runtime_IGateProvider_Interface__BASE__C)

.const:xdc_runtime_IHeap_Interface__BASE__C 
*          0    00001438    00000004     
                  00001438    00000004     release_pem3.oem3 (.const:xdc_runtime_IHeap_Interface__BASE__C)

.const:xdc_runtime_IModule_Interface__BASE__C 
*          0    0000143c    00000004     
                  0000143c    00000004     release_pem3.oem3 (.const:xdc_runtime_IModule_Interface__BASE__C)

.const:xdc_runtime_Main_Module__diagsEnabled__C 
*          0    00001440    00000004     
                  00001440    00000004     release_pem3.oem3 (.const:xdc_runtime_Main_Module__diagsEnabled__C)

.const:xdc_runtime_Main_Module__diagsIncluded__C 
*          0    00001444    00000004     
                  00001444    00000004     release_pem3.oem3 (.const:xdc_runtime_Main_Module__diagsIncluded__C)

.const:xdc_runtime_Main_Module__diagsMask__C 
*          0    00001448    00000004     
                  00001448    00000004     release_pem3.oem3 (.const:xdc_runtime_Main_Module__diagsMask__C)

.const:xdc_runtime_Memory_defaultHeapInstance__C 
*          0    0000144c    00000004     
                  0000144c    00000004     release_pem3.oem3 (.const:xdc_runtime_Memory_defaultHeapInstance__C)

.const:xdc_runtime_Startup_execImpl__C 
*          0    00001450    00000004     
                  00001450    00000004     release_pem3.oem3 (.const:xdc_runtime_Startup_execImpl__C)

.const:xdc_runtime_Startup_maxPasses__C 
*          0    00001454    00000004     
                  00001454    00000004     release_pem3.oem3 (.const:xdc_runtime_Startup_maxPasses__C)

.const:xdc_runtime_Startup_sfxnRts__C 
*          0    00001458    00000004     
                  00001458    00000004     release_pem3.oem3 (.const:xdc_runtime_Startup_sfxnRts__C)

.const:xdc_runtime_Startup_sfxnTab__C 
*          0    0000145c    00000004     
                  0000145c    00000004     release_pem3.oem3 (.const:xdc_runtime_Startup_sfxnTab__C)

.const:xdc_runtime_Startup_startModsFxn__C 
*          0    00001460    00000004     
                  00001460    00000004     release_pem3.oem3 (.const:xdc_runtime_Startup_startModsFxn__C)

.const:xdc_runtime_SysCallback_abortFxn__C 
*          0    00001464    00000004     
                  00001464    00000004     release_pem3.oem3 (.const:xdc_runtime_SysCallback_abortFxn__C)

.const:xdc_runtime_SysCallback_exitFxn__C 
*          0    00001468    00000004     
                  00001468    00000004     release_pem3.oem3 (.const:xdc_runtime_SysCallback_exitFxn__C)

.const:xdc_runtime_System_abortFxn__C 
*          0    0000146c    00000004     
                  0000146c    00000004     release_pem3.oem3 (.const:xdc_runtime_System_abortFxn__C)

.const:xdc_runtime_System_exitFxn__C 
*          0    00001470    00000004     
                  00001470    00000004     release_pem3.oem3 (.const:xdc_runtime_System_exitFxn__C)

.const:xdc_runtime_System_maxAtexitHandlers__C 
*          0    00001474    00000004     
                  00001474    00000004     release_pem3.oem3 (.const:xdc_runtime_System_maxAtexitHandlers__C)

.const:xdc_runtime_Text_charTab__C 
*          0    00001478    00000004     
                  00001478    00000004     release_pem3.oem3 (.const:xdc_runtime_Text_charTab__C)

.const:xdc_runtime_Text_nameEmpty__C 
*          0    0000147c    00000004     
                  0000147c    00000004     release_pem3.oem3 (.const:xdc_runtime_Text_nameEmpty__C)

.const:xdc_runtime_Text_nameStatic__C 
*          0    00001480    00000004     
                  00001480    00000004     release_pem3.oem3 (.const:xdc_runtime_Text_nameStatic__C)

.const:xdc_runtime_Text_nameUnknown__C 
*          0    00001484    00000004     
                  00001484    00000004     release_pem3.oem3 (.const:xdc_runtime_Text_nameUnknown__C)

.const:xdc_runtime_Main_Module__id__C 
*          0    00001488    00000002     
                  00001488    00000002     release_pem3.oem3 (.const:xdc_runtime_Main_Module__id__C)

.const:xdc_runtime_Memory_Module__id__C 
*          0    0000148a    00000002     
                  0000148a    00000002     release_pem3.oem3 (.const:xdc_runtime_Memory_Module__id__C)

.const:xdc_runtime_Text_charCnt__C 
*          0    0000148c    00000002     
                  0000148c    00000002     release_pem3.oem3 (.const:xdc_runtime_Text_charCnt__C)

.const:xdc_runtime_Text_isLoaded__C 
*          0    0000148e    00000002     
                  0000148e    00000002     release_pem3.oem3 (.const:xdc_runtime_Text_isLoaded__C)

.const:xdc_runtime_Error_policy__C 
*          0    00001490    00000001     
                  00001490    00000001     release_pem3.oem3 (.const:xdc_runtime_Error_policy__C)

.const:ti_sysbios_rom_ROM_AONRTCChannelEnable 
*          0    00001494    00000004     
                  00001494    00000004     release_pem3.oem3 (.const:ti_sysbios_rom_ROM_AONRTCChannelEnable)

.const:ti_sysbios_rom_ROM_AONRTCCompareValueSet 
*          0    00001498    00000004     
                  00001498    00000004     release_pem3.oem3 (.const:ti_sysbios_rom_ROM_AONRTCCompareValueSet)

.const:ti_sysbios_rom_ROM_AONRTCCurrentCompareValueGet 
*          0    0000149c    00000004     
                  0000149c    00000004     release_pem3.oem3 (.const:ti_sysbios_rom_ROM_AONRTCCurrentCompareValueGet)

.const:ti_sysbios_rom_ROM_AONRTCEventClear 
*          0    000014a0    00000004     
                  000014a0    00000004     release_pem3.oem3 (.const:ti_sysbios_rom_ROM_AONRTCEventClear)

.const:ti_sysbios_rom_ROM_ti_sysbios_family_arm_cc26xx_Timer_getCount64__E 
*          0    000014a4    00000004     
                  000014a4    00000004     release_pem3.oem3 (.const:ti_sysbios_rom_ROM_ti_sysbios_family_arm_cc26xx_Timer_getCount64__E)

.const:ti_sysbios_rom_ROM_ti_sysbios_family_arm_cc26xx_Timer_getCurrentTick__E 
*          0    000014a8    00000004     
                  000014a8    00000004     release_pem3.oem3 (.const:ti_sysbios_rom_ROM_ti_sysbios_family_arm_cc26xx_Timer_getCurrentTick__E)

.const:ti_sysbios_rom_ROM_ti_sysbios_family_arm_cc26xx_Timer_getMaxTicks__E 
*          0    000014ac    00000004     
                  000014ac    00000004     release_pem3.oem3 (.const:ti_sysbios_rom_ROM_ti_sysbios_family_arm_cc26xx_Timer_getMaxTicks__E)

.const:ti_sysbios_rom_ROM_ti_sysbios_family_arm_cc26xx_Timer_initDevice__I 
*          0    000014b0    00000004     
                  000014b0    00000004     release_pem3.oem3 (.const:ti_sysbios_rom_ROM_ti_sysbios_family_arm_cc26xx_Timer_initDevice__I)

.const:ti_sysbios_rom_ROM_ti_sysbios_family_arm_cc26xx_Timer_setNextTick__E 
*          0    000014b4    00000004     
                  000014b4    00000004     release_pem3.oem3 (.const:ti_sysbios_rom_ROM_ti_sysbios_family_arm_cc26xx_Timer_setNextTick__E)

.const:ti_sysbios_rom_ROM_ti_sysbios_family_arm_cc26xx_Timer_setThreshold__I 
*          0    000014b8    00000004     
                  000014b8    00000004     release_pem3.oem3 (.const:ti_sysbios_rom_ROM_ti_sysbios_family_arm_cc26xx_Timer_setThreshold__I)

.const:ti_sysbios_rom_ROM_ti_sysbios_family_arm_cc26xx_Timer_start__E 
*          0    000014bc    00000004     
                  000014bc    00000004     release_pem3.oem3 (.const:ti_sysbios_rom_ROM_ti_sysbios_family_arm_cc26xx_Timer_start__E)

.const:ti_sysbios_rom_ROM_ti_sysbios_family_arm_cc26xx_TimestampProvider_get32__E 
*          0    000014c0    00000004     
                  000014c0    00000004     release_pem3.oem3 (.const:ti_sysbios_rom_ROM_ti_sysbios_family_arm_cc26xx_TimestampProvider_get32__E)

.const:ti_sysbios_rom_ROM_xdc_runtime_Startup_getState__I 
*          0    000014c4    00000004     
                  000014c4    00000004     release_pem3.oem3 (.const:ti_sysbios_rom_ROM_xdc_runtime_Startup_getState__I)

.const:ti_sysbios_rom_ROM_xdc_runtime_System_SupportProxy_abort__E 
*          0    000014c8    00000004     
                  000014c8    00000004     release_pem3.oem3 (.const:ti_sysbios_rom_ROM_xdc_runtime_System_SupportProxy_abort__E)

.const:ti_sysbios_rom_ROM_xdc_runtime_System_SupportProxy_exit__E 
*          0    000014cc    00000004     
                  000014cc    00000004     release_pem3.oem3 (.const:ti_sysbios_rom_ROM_xdc_runtime_System_SupportProxy_exit__E)

.const:ti_sysbios_gates_GateMutex_Instance_State_sem__O 
*          0    000014d0    00000004     
                  000014d0    00000004     release_pem3.oem3 (.const:ti_sysbios_gates_GateMutex_Instance_State_sem__O)

.const:ti_sysbios_knl_Clock_Module_State_clockQ__O 
*          0    000014d4    00000004     
                  000014d4    00000004     release_pem3.oem3 (.const:ti_sysbios_knl_Clock_Module_State_clockQ__O)

.const:ti_sysbios_knl_Mailbox_Instance_State_dataQue__O 
*          0    000014d8    00000004     
                  000014d8    00000004     release_pem3.oem3 (.const:ti_sysbios_knl_Mailbox_Instance_State_dataQue__O)

.const:ti_sysbios_knl_Mailbox_Instance_State_dataSem__O 
*          0    000014dc    00000004     
                  000014dc    00000004     release_pem3.oem3 (.const:ti_sysbios_knl_Mailbox_Instance_State_dataSem__O)

.const:ti_sysbios_knl_Mailbox_Instance_State_freeQue__O 
*          0    000014e0    00000004     
                  000014e0    00000004     release_pem3.oem3 (.const:ti_sysbios_knl_Mailbox_Instance_State_freeQue__O)

.const:ti_sysbios_knl_Mailbox_Instance_State_freeSem__O 
*          0    000014e4    00000004     
                  000014e4    00000004     release_pem3.oem3 (.const:ti_sysbios_knl_Mailbox_Instance_State_freeSem__O)

.const:ti_sysbios_knl_Semaphore_Instance_State_pendQ__O 
*          0    000014e8    00000004     
                  000014e8    00000004     release_pem3.oem3 (.const:ti_sysbios_knl_Semaphore_Instance_State_pendQ__O)

.const:ti_sysbios_knl_Task_Module_State_inactiveQ__O 
*          0    000014ec    00000004     
                  000014ec    00000004     release_pem3.oem3 (.const:ti_sysbios_knl_Task_Module_State_inactiveQ__O)

.text.4    0    000014f0    0000bb4c     
                  000014f0    0000030c     drivers_cc13x0.aem3 : PowerCC26XX_calibrateRCOSC.oem3 (.text:PowerCC26XX_auxISR)
                  000017fc    00000308     NodeRadioTask.obj (.text:nodeRadioTaskFunction)
                  00001b04    00000304     ull.obj (.text:ull_advSchedule)
                  00001e08    000002f4     drivers_cc13x0.aem3 : SPICC26XXDMA.oem3 (.text:SPICC26XXDMA_transfer)
                  000020fc    000002d0     grlib.aem3 : string.oem3 (.text:Graphics_drawString)
                  000023cc    000002bc     NodeTask.obj (.text:nodeTaskFunction)
                  00002688    000002b4     NodeTask.obj (.text:updateLcd)
                  0000293c    00000228     driverlib.lib : sys_ctrl.obj (.text:NOROM_SysCtrlSetRechargeBeforePowerDown)
                  00002b64    00000224     drivers_cc13x0.aem3 : PowerCC26XX.oem3 (.text:Power_sleep)
                  00002d88    0000020c     BleAdv.obj (.text:BleAdv_updateUrl)
                  00002f94    000001fc     rf_multiMode_cc13x0.aem3 : RFCC26XX_multiMode.oem3 (.text:RF_open)
                  00003190    000001f4     rtsv7M3_T_le_eabi.lib : ull_div_t2.obj (.text)
                  00003384    000001bc     drivers_cc13x0.aem3 : PINCC26XX.oem3 (.text:PIN_init)
                  00003540    000001b8     EasyLink.obj (.text:EasyLink_receiveAsync)
                  000036f8    000001b6     rtsv7M3_T_le_eabi.lib : fd_add_t2.obj (.text)
                  000038ae    00000002     display.aem3 : DisplayUart.oem3 (.text:DisplayUartMin_clear)
                  000038b0    000001b4     BleAdv.obj (.text:BleAdv_init)
                  00003a64    000001a0     EasyLink.obj (.text:rxDoneCallback)
                  00003c04    0000019c     rf_multiMode_cc13x0.aem3 : RFCC26XX_multiMode.oem3 (.text:fsmSetupState)
                  00003da0    0000019c     urfi.obj (.text:urfi_initAdvCmd)
                  00003f3c    00000194     rf_multiMode_cc13x0.aem3 : RFCC26XX_multiMode.oem3 (.text:RF_scheduleCmd)
                  000040d0    00000194     BleAdv.obj (.text:advPrepareCB)
                  00004264    00000190     drivers_cc13x0.aem3 : PowerCC26XX_calibrateRCOSC.oem3 (.text:PowerCC26XX_doCalibrate)
                  000043f4    00000188     uble.obj (.text:uble_setParameter)
                  0000457c    0000017c     EasyLink.obj (.text:EasyLink_transmit)
                  000046f8    00000174     ull.obj (.text:uble_processLLMsg)
                  0000486c    00000170     rf_multiMode_cc13x0.aem3 : RFCC26XX_multiMode.oem3 (.text:RF_schCmdRunInsertPreempt)
                  000049dc    0000016c     EasyLink.obj (.text:enableTestMode)
                  00004b48    00000168     release_pem3.oem3 (.text:xdc_runtime_System_printfExtend__I)
                  00004cb0    00000164     drivers_cc13x0.aem3 : UARTCC26XX.oem3 (.text:UARTCC26XX_open)
                  00004e14    00000158                         : SPICC26XXDMA.oem3 (.text:SPICC26XXDMA_initIO)
                  00004f6c    00000154     rf_multiMode_cc13x0.aem3 : RFCC26XX_multiMode.oem3 (.text:radioOpDoneCb)
                  000050c0    00000150     smartrf_settings_predefined.obj (.text:rf_patch_mce_genook)
                  00005210    00000150     urfc.obj (.text:rf_patch_rfe_ble)
                  00005360    00000148     rf_multiMode_cc13x0.aem3 : RFCC26XX_multiMode.oem3 (.text:fsmChangePhyState)
                  000054a8    0000013c                              : RFCC26XX_multiMode.oem3 (.text:hwiFxnCpe0Active)
                  000055e4    0000013c     ugap.obj (.text:ugb_changeState)
                  00005720    00000138     display.aem3 : DisplaySharp.oem3 (.text:DisplaySharp_open)
                  00005858    00000130     driverlib.lib : setup_rom.obj (.text:NOROM_SetupAfterColdResetWakeupFromShutDownCfg3)
                  00005988    00000128     smartrf_settings.obj (.text:rf_patch_rfe_genfsk)
                  00005ab0    00000128     smartrf_settings_predefined.obj (.text:rf_patch_rfe_genfsk)
                  00005bd8    00000128     smartrf_settings_predefined.obj (.text:rf_patch_rfe_lrm)
                  00005d00    00000128     smartrf_settings_predefined.obj (.text:rf_patch_rfe_sl_longrange)
                  00005e28    00000124     drivers_cc13x0.aem3 : SPICC26XXDMA.oem3 (.text:SPICC26XXDMA_open)
                  00005f4c    0000011c                         : UARTCC26XX.oem3 (.text:UARTCC26XX_read)
                  00006068    00000114                         : PowerCC26XX.oem3 (.text:Power_init)
                  0000617c    00000114     smartrf_settings_predefined.obj (.text:rf_patch_mce_hsp_4mbps)
                  00006290    00000112     drivers_cc13x0.aem3 : UARTCC26XX.oem3 (.text:UARTCC26XX_hwiIntFxn)
                  000063a2    00000002     display.aem3 : DisplayUart.oem3 (.text:DisplayUartMin_clearLines)
                  000063a4    00000108     NodeRadioTask.obj (.text:NodeRadioTask_sendThermostatData)
                  000064ac    00000100     rf_multiMode_cc13x0.aem3 : RFCC26XX_multiMode.oem3 (.text:fsmPowerUpState)
                  000065ac    000000fc                              : RFCC26XX_multiMode.oem3 (.text:RF_close)
                  000066a8    000000fc     drivers_cc13x0.aem3 : UARTCC26XX.oem3 (.text:UARTCC26XX_write)
                  000067a4    000000fc     rtsv7M3_T_le_eabi.lib : fd_mul_t2.obj (.text)
                  000068a0    000000f0     driverlib.lib : setup_rom.obj (.text:NOROM_SetupAfterColdResetWakeupFromShutDownCfg2)
                  00006990    000000f0     rf_multiMode_cc13x0.aem3 : RFCC26XX_multiMode.oem3 (.text:RF_pendCmd)
                  00006a80    000000e8     drivers_cc13x0.aem3 : SPICC26XXDMA.oem3 (.text:SPICC26XXDMA_transferCancel)
                  00006b68    000000e8     rom_sysbios.aem3 : rom_sysbios.obj (.text:ti_sysbios_knl_Event_pend__E)
                  00006c50    000000e4     dpl_cc13x0.aem3 : PowerCC26XX_tirtos.oem3 (.text:PowerCC26XX_standbyPolicy)
                  00006d34    000000e2     lcd.aem3 : SharpGrLib.oem3 (.text:SharpGrLib_rectFill)
                  00006e16    00000002     display.aem3 : DisplayUart.oem3 (.text:DisplayUartMin_init)
                  00006e18    000000dc     driverlib.lib : rfc.obj (.text:NOROM_RFCOverrideUpdate)
                  00006ef4    000000dc     drivers_cc13x0.aem3 : PINCC26XX.oem3 (.text:PINCC26XX_setIoCfg)
                  00006fd0    000000dc     rf_multiMode_cc13x0.aem3 : RFCC26XX_multiMode.oem3 (.text:RF_getInfo)
                  000070ac    000000dc     lcd.aem3 : SharpGrLib.oem3 (.text:SharpGrLib_flush)
                  00007188    000000d8     EasyLink.obj (.text:EasyLink_enableRxAddrFilter)
                  00007260    000000d8     rf_multiMode_cc13x0.aem3 : RFCC26XX_multiMode.oem3 (.text:RF_schCmdPriority)
                  00007338    000000d8     smartrf_settings_predefined.obj (.text:rf_patch_rfe_genook)
                  00007410    000000d8     smartrf_settings_predefined.obj (.text:rf_patch_rfe_hsp_4mbps)
                  000074e8    000000d4     driverlib.lib : rfc.obj (.text:NOROM_RFCRfTrimRead)
                  000075bc    000000d4     rf_multiMode_cc13x0.aem3 : RFCC26XX_multiMode.oem3 (.text:RF_control)
                  00007690    000000d4                              : RFCC26XX_multiMode.oem3 (.text:RF_postCmd)
                  00007764    000000cc     urfi.obj (.text:urfi_init)
                  00007830    000000c4     driverlib.lib : setup.obj (.text:TrimAfterColdResetWakeupFromShutDown)
                  000078f4    000000c4     NodeTask.obj (.text:buttonCallback)
                  000079b8    000000c4     smartrf_settings_predefined.obj (.text:rf_patch_mce_sl_longrange)
                  00007a7c    000000c0     EasyLink.obj (.text:EasyLink_setCtrl)
                  00007b3c    000000c0     rf_multiMode_cc13x0.aem3 : RFCC26XX_multiMode.oem3 (.text:abortCmd)
                  00007bfc    000000be     display.aem3 : DisplaySharp.oem3 (.text:DisplaySharp_vprintf)
                  00007cba    00000002     rf_multiMode_cc13x0.aem3 : RFCC26XX_multiMode.oem3 (.text:defaultCallback)
                  00007cbc    000000bc     drivers_cc13x0.aem3 : PowerCC26XX.oem3 (.text:Power_releaseDependency)
                  00007d78    000000bc                         : UARTCC26XX.oem3 (.text:UARTCC26XX_initHw)
                  00007e34    000000b8     rf_multiMode_cc13x0.aem3 : RFCC26XX_multiMode.oem3 (.text:RF_dispatchNextCmd)
                  00007eec    000000b4     drivers_cc13x0.aem3 : PowerCC26XX.oem3 (.text:Power_setDependency)
                  00007fa0    000000ac     NodeRadioTask.obj (.text:NodeRadioTask_init)
                  0000804c    000000ac     lcd.aem3 : SharpGrLib.oem3 (.text:SharpGrLib_lineDrawH)
                  000080f8    000000a8     driverlib.lib : setup.obj (.text:NOROM_SetupTrimDevice)
                  000081a0    000000a8     rf_multiMode_cc13x0.aem3 : RFCC26XX_multiMode.oem3 (.text:discardPendCmd)
                  00008248    000000a6     drivers_cc13x0.aem3 : SPICC26XXDMA.oem3 (.text:SPICC26XXDMA_hwiFxn)
                  000082ee    00000002                         : PowerCC26XX.oem3 (.text:emptyClockFunc)
                  000082f0    000000a4     driverlib.lib : setup_rom.obj (.text:NOROM_SetupAfterColdResetWakeupFromShutDownCfg1)
                  00008394    000000a4     drivers_cc13x0.aem3 : PowerCC26XX.oem3 (.text:switchXOSCHFclockFunc)
                  00008438    000000a0     NodeTask.obj (.text:NodeTask_init)
                  000084d8    000000a0     rf_multiMode_cc13x0.aem3 : RFCC26XX_multiMode.oem3 (.text:RF_schChkCmdInsert)
                  00008578    000000a0     auto_init.aem3 : auto_init.oem3 (.text)
                  00008618    0000009c     rf_multiMode_cc13x0.aem3 : RFCC26XX_multiMode.oem3 (.text:RF_issueRadioFreeCb)
                  000086b4    0000009c     rtsv7M3_T_le_eabi.lib : memcpy_t2.obj (.text)
                  00008750    0000009c     rf_multiMode_cc13x0.aem3 : RFCC26XX_multiMode.oem3 (.text:swiFxnHw)
                  000087ec    00000098     drivers_cc13x0.aem3 : PINCC26XX.oem3 (.text:PIN_open)
                  00008884    00000098                         : UARTCC26XX.oem3 (.text:UARTCC26XX_initIO)
                  0000891c    00000098     rom_sysbios.aem3 : rom_sysbios.obj (.text:ti_sysbios_knl_Clock_workFuncDynamic__E)
                  000089b4    00000098     ull.obj (.text:ull_init)
                  00008a4c    00000094     ull.obj (.text:ull_advDoneCb)
                  00008ae0    00000090     drivers_cc13x0.aem3 : SPICC26XXDMA.oem3 (.text:SPICC26XXDMA_control)
                  00008b70    00000090     NodeRadioTask.obj (.text:bleAdv_updateTlmCB)
                  00008c00    00000090     ugap.obj (.text:ugap_bcastInit)
                  00008c90    0000008c     EasyLink.obj (.text:EasyLink_init_multimode)
                  00008d1c    0000008c     drivers_cc13x0.aem3 : UARTCC26XX.oem3 (.text:UARTCC26XX_close)
                  00008da8    0000008c                         : UARTCC26XX.oem3 (.text:UARTCC26XX_writeCancel)
                  00008e34    0000008c                         : UARTCC26XX.oem3 (.text:writeFinishedDoCallback)
                  00008ec0    00000086     rtsv7M3_T_le_eabi.lib : fd_cmp_t2.obj (.text:__aeabi_cdcmple)
                  00008f46    00000086                           : fd_cmp_t2.obj (.text:__aeabi_cdrcmple)
                  00008fcc    00000086     uble.obj (.text:uble_checkAddr)
                  00009052    00000084     grlib.aem3 : rectangle.oem3 (.text:Graphics_fillRectangle)
                  000090d6    00000002     urfc.obj (.text:enterBleSysPatch)
                  000090d8    00000084     NodeRadioTask.obj (.text:resendPacket)
                  0000915c    00000084     uble.obj (.text:uble_stackInit)
                  000091e0    00000080     rf_multiMode_cc13x0.aem3 : RFCC26XX_multiMode.oem3 (.text:RF_prepareRadio)
                  00009260    00000080                              : RFCC26XX_multiMode.oem3 (.text:hwiFxnCpe0PowerFsm)
                  000092e0    0000007c     lcd.aem3 : SharpGrLib.oem3 (.text:SharpGrLib_clearScreen)
                  0000935c    0000007a     rtsv7M3_T_le_eabi.lib : memset_t2.obj (.text)
                  000093d6    00000002     smartrf_settings.obj (.text:enterGenfskSysPatch)
                  000093d8    00000078     BleAdv.obj (.text:advDoneCB)
                  00009450    00000078     BleAdv.obj (.text:getBleIeeeAddr)
                  000094c8    00000078     uble.obj (.text:uble_buildAndPostEvt)
                  00009540    00000078     ull.obj (.text:ull_advStop)
                  000095b8    00000078     drivers_cc13x0.aem3 : UARTCC26XX.oem3 (.text:writeTxFifoFlush)
                  00009630    00000074     driverlib.lib : setup_rom.obj (.text:NOROM_SetupSetVddrLevel)
                  000096a4    00000074     rf_multiMode_cc13x0.aem3 : RFCC26XX_multiMode.oem3 (.text:hwiFxnHw)
                  00009718    00000074     rom_sysbios.aem3 : rom_sysbios.obj (.text:ti_sysbios_family_arm_cc26xx_Timer_start__E)
                  0000978c    00000070     scif_framework.obj (.text:scifGetTaskStruct)
                  000097fc    00000070     rom_sysbios.aem3 : rom_sysbios.obj (.text:ti_sysbios_knl_Event_post__E)
                  0000986c    0000006d                      : rom_sysbios.obj (.text:xdc_runtime_System_formatNum__I)
                  000098d9    00000001     --HOLE-- [fill = 0]
                  000098da    00000002     smartrf_settings_predefined.obj (.text:enterGenfskSysPatch)
                  000098dc    0000006c     drivers_cc13x0.aem3 : PowerCC26XX_calibrateRCOSC.oem3 (.text:PowerCC26XX_initiateCalibration)
                  00009948    0000006c     ugap.obj (.text:uble_processGAPMsg)
                  000099b4    00000068     driverlib.lib : setup_rom.obj (.text:NOROM_SetupGetTrimForAmpcompCtrl)
                  00009a1c    00000068                   : setup_rom.obj (.text:NOROM_SetupGetTrimForAnabypassValue1)
                  00009a84    00000068                   : sys_ctrl.obj (.text:NOROM_SysCtrlAdjustRechargeAfterPowerDown)
                  00009aec    00000068                   : sys_ctrl.obj (.text:NOROM_SysCtrl_DCDC_VoltageConditionalControl)
                  00009b54    00000068     drivers_cc13x0.aem3 : UARTCC26XX.oem3 (.text:UARTCC26XX_readCancel)
                  00009bbc    00000068     rtsv7M3_T_le_eabi.lib : copy_decompress_lzss.obj (.text:decompress:lzss)
                  00009c24    00000068     rf_multiMode_cc13x0.aem3 : RFCC26XX_multiMode.oem3 (.text:fsmXOSCState)
                  00009c8c    00000068     drivers_cc13x0.aem3 : PowerCC26XX.oem3 (.text:lfClockReadyCallback)
                  00009cf4    00000068     NodeRadioTask.obj (.text:rxDoneCallback)
                  00009d5c    00000064     driverlib.lib : osc.obj (.text:NOROM_OSCHF_AttemptToSwitchToXosc)
                  00009dc0    00000064     drivers_cc13x0.aem3 : PINCC26XX.oem3 (.text:PIN_add)
                  00009e24    00000064                         : PowerCC26XX.oem3 (.text:configureXOSCHF)
                  00009e88    00000064     BleAdv.obj (.text:stateChangeCB)
                  00009eec    00000060     driverlib.lib : osc.obj (.text:NOROM_OSCClockSourceSet)
                  00009f4c    00000060     drivers_cc13x0.aem3 : UARTCC26XX.oem3 (.text:UARTCC26XX_control)
                  00009fac    00000060     smartrf_settings.obj (.text:configureGenfskPatch)
                  0000a00c    00000060     smartrf_settings_predefined.obj (.text:configureGenfskPatch)
                  0000a06c    00000060     smartrf_settings_predefined.obj (.text:configureGenookPatch)
                  0000a0cc    00000060     smartrf_settings_predefined.obj (.text:configureLrmPatch)
                  0000a12c    00000060     smartrf_settings_predefined.obj (.text:configureSl_longrangePatch)
                  0000a18c    00000060     ugap.obj (.text:ugap_bcastSetDuty)
                  0000a1ec    00000060     urfi.obj (.text:urfi_getTxPowerVal)
                  0000a24c    0000005c     display.aem3 : Display.oem3 (.text:Display_doOpen)
                  0000a2a8    0000005c     drivers_cc13x0.aem3 : PowerCC26XX_calibrateRCOSC.oem3 (.text:PowerCC26XX_RCOSC_clockFunc)
                  0000a304    0000005c                         : PowerCC26XX.oem3 (.text:PowerCC26XX_calibrate)
                  0000a360    0000005c                         : UDMACC26XX.oem3 (.text:UDMACC26XX_open)
                  0000a3bc    0000005c     rf_multiMode_cc13x0.aem3 : RFCC26XX_multiMode.oem3 (.text:syncCb)
                  0000a418    0000005c     rom_sysbios.aem3 : rom_sysbios.obj (.text:ti_sysbios_heaps_HeapMem_initPrimary__I)
                  0000a474    0000005c     release_pem3.oem3 (.text:xdc_runtime_Startup_getState__I)
                  0000a4d0    0000005a     drivers_cc13x0.aem3 : SPICC26XXDMA.oem3 (.text:SPICC26XXDMA_close)
                  0000a52a    00000002     smartrf_settings_predefined.obj (.text:enterGenookSysPatch)
                  0000a52c    00000058     drivers_cc13x0.aem3 : PINCC26XX.oem3 (.text:PIN_remove)
                  0000a584    00000058                         : SPICC26XXDMA.oem3 (.text:SPICC26XXDMA_initHw)
                  0000a5dc    00000058     rf_multiMode_cc13x0.aem3 : RFCC26XX_multiMode.oem3 (.text:applyRfCorePatch)
                  0000a634    00000058                              : RFCC26XX_multiMode.oem3 (.text:calculateDispatchTime)
                  0000a68c    00000058                              : RFCC26XX_multiMode.oem3 (.text:ratChanFree)
                  0000a6e4    00000056     drivers_cc13x0.aem3 : SPICC26XXDMA.oem3 (.text:SPICC26XXDMA_swiFxn)
                  0000a73a    00000054     lcd.aem3 : SharpGrLib.oem3 (.text:SharpGrLib_lineDrawV)
                  0000a78e    00000002     smartrf_settings_predefined.obj (.text:enterLrmSysPatch)
                  0000a790    00000050     driverlib.lib : setup_rom.obj (.text:NOROM_SetupSetCacheModeAccordingToCcfgSetting)
                  0000a7e0    00000050     rf_multiMode_cc13x0.aem3 : RFCC26XX_multiMode.oem3 (.text:RF_getCurrentTime)
                  0000a830    00000050                              : RFCC26XX_multiMode.oem3 (.text:RF_ieeeExpansion)
                  0000a880    00000050     drivers_cc13x0.aem3 : UARTCC26XX.oem3 (.text:startTxFifoEmptyClk)
                  0000a8d0    0000004c     display.aem3 : DisplaySharp.oem3 (.text:DisplaySharp_clearLines)
                  0000a91c    0000004c     rf_multiMode_cc13x0.aem3 : RFCC26XX_multiMode.oem3 (.text:RF_wakeupNotifyFxn)
                  0000a968    0000004c     rtsv7M3_T_le_eabi.lib : cpy_tbl.obj (.text)
                  0000a9b4    0000004c                           : rand.obj (.text)
                  0000aa00    0000004c     ull.obj (.text:ull_advStart)
                  0000aa4c    0000004c     urfi.obj (.text:urfi_clientEventCb)
                  0000aa98    0000004a     display.aem3 : DisplaySharp.oem3 (.text:DisplaySharp_close)
                  0000aae2    0000004a                  : DisplayUart.oem3 (.text:DisplayUartMin_open)
                  0000ab2c    0000004a     grlib.aem3 : line.oem3 (.text:Graphics_drawLineH)
                  0000ab76    00000002     smartrf_settings_predefined.obj (.text:enterSl_longrangeSysPatch)
                  0000ab78    00000048     dpl_cc13x0.aem3 : ClockP_tirtos.oem3 (.text:ClockP_construct)
                  0000abc0    00000048     drivers_cc13x0.aem3 : PINCC26XX.oem3 (.text:PIN_setOutputEnable)
                  0000ac08    00000048     rf_multiMode_cc13x0.aem3 : RFCC26XX_multiMode.oem3 (.text:Q_push)
                  0000ac50    00000048     lcd.aem3 : SharpGrLib.oem3 (.text:SharpGrLib_drawMultiple)
                  0000ac98    00000048     rf_multiMode_cc13x0.aem3 : RFCC26XX_multiMode.oem3 (.text:postDirImmCmd)
                  0000ace0    00000048     rtsv7M3_T_le_eabi.lib : fd_toi_t2.obj (.text)
                  0000ad28    00000048     uble.obj (.text:uble_processMsg)
                  0000ad70    00000048     ugap.obj (.text:ugb_advPostprocessCB)
                  0000adb8    00000046     display.aem3 : DisplayUart.oem3 (.text:DisplayUartMin_vprintf)
                  0000adfe    00000002     rtsv7M3_T_le_eabi.lib : i_div0.obj (.text)
                  0000ae00    00000044     rf_multiMode_cc13x0.aem3 : RFCC26XX_multiMode.oem3 (.text:RF_releasePowerConstraint)
                  0000ae44    00000044     drivers_cc13x0.aem3 : RingBuf.oem3 (.text:RingBuf_put)
                  0000ae88    00000044                         : SPICC26XXDMA.oem3 (.text:SPICC26XXDMA_csnCallback)
                  0000aecc    00000044     boot.aem3 : boot.oem3 (.text)
                  0000af10    00000044     drivers_cc13x0.aem3 : PowerCC26XX.oem3 (.text:notify)
                  0000af54    00000044     rtsv7M3_T_le_eabi.lib : fd_tou_t2.obj (.text)
                  0000af98    00000040     drivers_cc13x0.aem3 : PINCC26XX.oem3 (.text:PINCC26XX_getConfig)
                  0000afd8    00000040                         : PINCC26XX.oem3 (.text:PIN_swi)
                  0000b018    00000040                         : SPI.oem3 (.text:SPI_init)
                  0000b058    00000040                         : SPI.oem3 (.text:SPI_open)
                  0000b098    00000040     lcd.aem3 : SharpGrLib.oem3 (.text:SharpGrLib_pixelDraw)
                  0000b0d8    00000040     drivers_cc13x0.aem3 : UART.oem3 (.text:UART_init)
                  0000b118    00000040                         : UART.oem3 (.text:UART_open)
                  0000b158    00000040     urfc.obj (.text:configureBlePatch)
                  0000b198    00000040     rtsv7M3_T_le_eabi.lib : u_divt2.obj (.text)
                  0000b1d8    00000040     rom_sysbios.aem3 : rom_sysbios.obj (.text:ti_sysbios_family_arm_cc26xx_Timer_setThreshold__I)
                  0000b218    0000003e     dpl_cc13x0.aem3 : HwiP_tirtos.oem3 (.text:HwiP_construct)
                  0000b256    0000003e     drivers_cc13x0.aem3 : RingBuf.oem3 (.text:RingBuf_get)
                  0000b294    0000003c     driverlib.lib : chipinfo.obj (.text:NOROM_ChipInfo_GetHwRevision)
                  0000b2d0    0000003c                   : osc.obj (.text:NOROM_OSC_HPOSCRelativeFrequencyOffsetGet)
                  0000b30c    0000003c                   : rfc.obj (.text:NOROM_RFCSynthPowerDown)
                  0000b348    0000003c     drivers_cc13x0.aem3 : PowerCC26XX.oem3 (.text:PowerCC26XX_isStableXOSC_HF)
                  0000b384    0000003c     dpl_cc13x0.aem3 : SwiP_tirtos.oem3 (.text:SwiP_construct)
                  0000b3c0    0000003c     drivers_cc13x0.aem3 : PowerCC26XX.oem3 (.text:disableLfClkQualifiersEnableClkLoss)
                  0000b3fc    0000003c     rf_multiMode_cc13x0.aem3 : RFCC26XX_multiMode.oem3 (.text:getCmd)
                  0000b438    0000003c     rom_sysbios.aem3 : rom_sysbios.obj (.text:ti_sysbios_family_arm_m3_Hwi_construct2__E)
                  0000b474    0000003a     dpl_cc13x0.aem3 : SemaphoreP_tirtos.oem3 (.text:SemaphoreP_construct)
                  0000b4ae    00000002     rom_sysbios.aem3 : rom_sysbios.obj (.text:ti_sysbios_BIOS_linkedWithIncorrectBootLibrary__E)
                  0000b4b0    00000038     drivers_cc13x0.aem3 : PINCC26XX.oem3 (.text:PIN_setOutputValue)
                  0000b4e8    00000038                         : UARTCC26XX.oem3 (.text:UARTCC26XX_swiIntFxn)
                  0000b520    00000038                         : UARTCC26XX.oem3 (.text:readData)
                  0000b558    00000038     rtsv7M3_T_le_eabi.lib : fs_tod_t2.obj (.text)
                  0000b590    00000038     ugap.obj (.text:ugap_clockHandler)
                  0000b5c8    00000038     drivers_cc13x0.aem3 : UARTCC26XX.oem3 (.text:writeData)
                  0000b600    00000036                         : UDMACC26XX.oem3 (.text:UDMACC26XX_close)
                  0000b636    00000036     rtsv7M3_T_le_eabi.lib : strncpy.obj (.text)
                  0000b66c    00000034     BleAdv.obj (.text:BleAdv_setAdvertiserType)
                  0000b6a0    00000034     driverlib.lib : osc.obj (.text:NOROM_OSCHF_SwitchToRcOscTurnOffXosc)
                  0000b6d4    00000034     drivers_cc13x0.aem3 : PINCC26XX.oem3 (.text:PIN_setConfig)
                  0000b708    00000034                         : PINCC26XX.oem3 (.text:PIN_setInterrupt)
                  0000b73c    00000034                         : PowerCC26XX.oem3 (.text:Power_releaseConstraint)
                  0000b770    00000034     rf_multiMode_cc13x0.aem3 : RFCC26XX_multiMode.oem3 (.text:Q_end)
                  0000b7a4    00000034                              : RFCC26XX_multiMode.oem3 (.text:RF_checkCmdFsError)
                  0000b7d8    00000034     rom_sysbios.aem3 : rom_sysbios.obj (.text:ti_sysbios_family_arm_cc26xx_Timer_initDevice__I)
                  0000b80c    00000034                      : rom_sysbios.obj (.text:ti_sysbios_knl_Swi_setPri__E)
                  0000b840    00000034     ugap.obj (.text:ugap_bcastStart)
                  0000b874    00000034     ull.obj (.text:ull_clockHandler)
                  0000b8a8    00000032     rom_sysbios.aem3 : rom_sysbios.obj (.text:ti_sysbios_family_arm_cc26xx_Timer_setNextTick__E)
                  0000b8da    00000002     release_pem3.oem3 (.text:ti_sysbios_BIOS_nullFunc__I)
                  0000b8dc    00000030     driverlib.lib : chipinfo.obj (.text:NOROM_ChipInfo_GetChipType)
                  0000b90c    00000030                   : setup_rom.obj (.text:NOROM_SetupSetAonRtcSubSecInc)
                  0000b93c    00000030     NodeTask.obj (.text:NodeTask_advStatsCB)
                  0000b96c    00000030     drivers_cc13x0.aem3 : PowerCC26XX.oem3 (.text:Power_setConstraint)
                  0000b99c    00000030     rf_multiMode_cc13x0.aem3 : RFCC26XX_multiMode.oem3 (.text:RF_runCmd)
                  0000b9cc    00000030     drivers_cc13x0.aem3 : UARTCC26XX.oem3 (.text:readData2RingBuf)
                  0000b9fc    00000030     release_pem3.oem3 (.text:ti_sysbios_BIOS_atExitFunc__I)
                  0000ba2c    00000030     release_pem3.oem3 (.text:ti_sysbios_BIOS_startFunc__I)
                  0000ba5c    00000030     rom_sysbios.aem3 : rom_sysbios.obj (.text:ti_sysbios_family_arm_cc26xx_Timer_getCurrentTick__E)
                  0000ba8c    00000030     uble.obj (.text:uble_getPublicAddr)
                  0000babc    0000002e     lcd.aem3 : SharpGrLib.oem3 (.text:SharpGrLib_initializeDisplayBuffer)
                  0000baea    0000002e     rtsv7M3_T_le_eabi.lib : i_tofd_t2.obj (.text)
                  0000bb18    0000002e     release_pem3.oem3 (.text:ti_sysbios_rts_gnu_MemAlloc_alloc)
                  0000bb46    0000002c     display.aem3 : DisplaySharp.oem3 (.text:DisplaySharp_clear)
                  0000bb72    00000002     rom_sysbios.aem3 : rom_sysbios.obj (.text:ti_sysbios_knl_Clock_triggerFunc__I)
                  0000bb74    0000002c     driverlib.lib : ddi.obj (.text:NOROM_DDI32RegWrite)
                  0000bba0    0000002c                   : osc.obj (.text:NOROM_OSCClockSourceGet)
                  0000bbcc    0000002c                   : rfc.obj (.text:NOROM_RFCCPEPatchReset)
                  0000bbf8    0000002c                   : setup_rom.obj (.text:NOROM_SetupGetTrimForRadcExtCfg)
                  0000bc24    0000002c     drivers_cc13x0.aem3 : PINCC26XX.oem3 (.text:PINCC26XX_setMux)
                  0000bc50    0000002c     dpl_cc13x0.aem3 : SemaphoreP_tirtos.oem3 (.text:SemaphoreP_constructBinary)
                  0000bc7c    0000002c                     : SemaphoreP_tirtos.oem3 (.text:SemaphoreP_createBinary)
                  0000bca8    0000002c     EasyLink.obj (.text:asyncCmdCallback)
                  0000bcd4    0000002c     rf_multiMode_cc13x0.aem3 : RFCC26XX_multiMode.oem3 (.text:clkPowerUpFxn)
                  0000bd00    0000002c     rom_sysbios.aem3 : rom_sysbios.obj (.text:ti_sysbios_knl_Clock_getTicksUntilInterrupt__E)
                  0000bd2c    0000002c     release_pem3.oem3 (.text:ti_sysbios_knl_Event_construct)
                  0000bd58    0000002c     rom_sysbios.aem3 : rom_sysbios.obj (.text:ti_sysbios_knl_Event_pendTimeout__I)
                  0000bd84    0000002a     display.aem3 : Display.oem3 (.text:Display_doPrintf)
                  0000bdae    0000002a     rom_sysbios.aem3 : rom_sysbios.obj (.text:ti_sysbios_knl_Clock_getTimeout__E)
                  0000bdd8    0000002a                      : rom_sysbios.obj (.text:xdc_runtime_System_putchar__I)
                  0000be02    00000002     release_pem3.oem3 (.text:ti_sysbios_rom_cortexm_cc13xx_CC13xx_badRomRevision__E)
                  0000be04    00000028     display.aem3 : Display.oem3 (.text:Display_doInit)
                  0000be2c    00000028     driverlib.lib : aon_batmon.obj (.text:NOROM_AONBatMonTemperatureGetDegC)
                  0000be54    00000028     drivers_cc13x0.aem3 : PowerCC26XX.oem3 (.text:Power_registerNotify)
                  0000be7c    00000028                         : SPICC26XXDMA.oem3 (.text:SPICC26XXDMA_flushFifos)
                  0000bea4    00000028     driverlib.lib : adi.obj (.text:SafeHapiVoid)
                  0000becc    00000028     NodeTask.obj (.text:rfSwitchCallback)
                  0000bef4    00000028     rtsv7M3_T_le_eabi.lib : strncmp.obj (.text)
                  0000bf1c    00000028     ugap.obj (.text:ugb_advPrepareCB)
                  0000bf44    00000024     driverlib.lib : rfc.obj (.text:NOROM_RFCDoorbellSendTo)
                  0000bf68    00000024     SceAdc.obj (.text:SceAdc_setReportInterval)
                  0000bf8c    00000024     rf_multiMode_cc13x0.aem3 : RFCC26XX_multiMode.oem3 (.text:allocCmd)
                  0000bfb0    00000024     release_pem3.oem3 (.text:ti_sysbios_BIOS_registerRTSLock__I)
                  0000bfd4    00000024     release_pem3.oem3 (.text:ti_sysbios_BIOS_removeRTSLock__I)
                  0000bff8    00000024     rom_sysbios.aem3 : rom_sysbios.obj (.text:ti_sysbios_family_arm_cc26xx_Timer_getMaxTicks__E)
                  0000c01c    00000022     grlib.aem3 : context.oem3 (.text:Graphics_initContext)
                  0000c03e    00000022     drivers_cc13x0.aem3 : List.oem3 (.text:List_put)
                  0000c060    00000020     driverlib.lib : rfc.obj (.text:NOROM_RFCAdi3VcoLdoVoltageMode)
                  0000c080    00000020                   : setup_rom.obj (.text:NOROM_SetupGetTrimForXoscHfCtl)
                  0000c0a0    00000020     dpl_cc13x0.aem3 : PowerCC26XX_tirtos.oem3 (.text:PowerCC26XX_schedulerDisable)
                  0000c0c0    00000020                     : PowerCC26XX_tirtos.oem3 (.text:PowerCC26XX_schedulerRestore)
                  0000c0e0    00000020     drivers_cc13x0.aem3 : PowerCC26XX.oem3 (.text:Power_unregisterNotify)
                  0000c100    00000020     BleAdv.obj (.text:bleAntSettingHandler)
                  0000c120    00000020     NodeRadioTask.obj (.text:returnRadioOperationStatus)
                  0000c140    00000020     release_pem3.oem3 (.text:ti_sysbios_BIOS_rtsLock__I)
                  0000c160    00000020     rom_sysbios.aem3 : rom_sysbios.obj (.text:ti_sysbios_family_arm_cc26xx_Timer_dynamicStub__E)
                  0000c180    00000020                      : rom_sysbios.obj (.text:ti_sysbios_knl_Clock_stop__E)
                  0000c1a0    00000020                      : rom_sysbios.obj (.text:ti_sysbios_knl_Event_checkEvents__I)
                  0000c1c0    00000020     ugap.obj (.text:ugap_bcastStop)
                  0000c1e0    00000020     ull.obj (.text:ull_advRegisterCB)
                  0000c200    00000020     BleAdv.obj (.text:updateAdvFrame)
                  0000c220    00000020     rom_sysbios.aem3 : rom_sysbios.obj (.text:xdc_runtime_Error_policyMin__E)
                  0000c240    0000001e     drivers_cc13x0.aem3 : PINCC26XX.oem3 (.text:PIN_close)
                  0000c25e    0000001e                         : PowerCC26XX.oem3 (.text:Power_getTransitionLatency)
                  0000c27c    0000001c     driverlib.lib : chipinfo.obj (.text:NOROM_ChipInfo_GetChipFamily)
                  0000c298    0000001c                   : setup_rom.obj (.text:NOROM_SetupGetTrimForAmpcompTh2)
                  0000c2b4    0000001c                   : setup_rom.obj (.text:NOROM_SetupGetTrimForRcOscLfRtuneCtuneTrim)
                  0000c2d0    0000001c     drivers_cc13x0.aem3 : PINCC26XX.oem3 (.text:PINCC26XX_setIoCfgMux)
                  0000c2ec    0000001c                         : PINCC26XX.oem3 (.text:PIN_hwi)
                  0000c308    0000001c     rf_multiMode_cc13x0.aem3 : RFCC26XX_multiMode.oem3 (.text:RF_setPowerConstraint)
                  0000c324    0000001c     NodeRadioTask.obj (.text:bleAdv_updateMsButtonCB)
                  0000c340    0000001c     rf_multiMode_cc13x0.aem3 : RFCC26XX_multiMode.oem3 (.text:clkInactivityFxn)
                  0000c35c    0000001c     urfc.obj (.text:enterBleCpePatch)
                  0000c378    0000001c     smartrf_settings.obj (.text:enterGenfskCpePatch)
                  0000c394    0000001c     smartrf_settings_predefined.obj (.text:enterGenfskCpePatch)
                  0000c3b0    0000001c     smartrf_settings_predefined.obj (.text:enterGenookCpePatch)
                  0000c3cc    0000001c     smartrf_settings_predefined.obj (.text:enterLrmCpePatch)
                  0000c3e8    0000001c     smartrf_settings_predefined.obj (.text:enterSl_longrangeCpePatch)
                  0000c404    0000001c     rf_multiMode_cc13x0.aem3 : RFCC26XX_multiMode.oem3 (.text:hwiFxnCpe0ChangePhy)
                  0000c420    0000001c     rom_sysbios.aem3 : rom_sysbios.obj (.text:ti_sysbios_knl_Swi_construct2__E)
                  0000c43c    0000001a     grlib.aem3 : string.oem3 (.text:Graphics_getNumberOfLeadingZeros)
                  0000c456    0000001a     release_pem3.oem3 (.text:free)
                  0000c470    0000001a     rfWsnNode.obj (.text:main)
                  0000c48a    00000002     rom_sysbios.aem3 : rom_sysbios.obj (.text:xdc_runtime_SysCallback_defaultAbort)
                  0000c48c    00000018     BleAdv.obj (.text:BleAdv_Params_init)
                  0000c4a4    00000018     CC1350_LAUNCHXL.obj (.text:CC1350_LAUNCHXL_initGeneral)
                  0000c4bc    00000018     EasyLink.obj (.text:EasyLink_Params_init)
                  0000c4d4    00000018     driverlib.lib : aon_rtc.obj (.text:NOROM_AONRTCCurrentCompareValueGet)
                  0000c4ec    00000018                   : chipinfo.obj (.text:NOROM_ChipInfo_GetPackageType)
                  0000c504    00000018                   : osc.obj (.text:NOROM_OSCHF_TurnOnXosc)
                  0000c51c    00000018                   : rfc.obj (.text:NOROM_RFCCpeIntGetAndClear)
                  0000c534    00000018                   : rfc.obj (.text:NOROM_RFCHWIntGetAndClear)
                  0000c54c    00000018                   : setup_rom.obj (.text:NOROM_SetupGetTrimForAdcShModeEn)
                  0000c564    00000018                   : setup_rom.obj (.text:NOROM_SetupGetTrimForAdcShVbufEn)
                  0000c57c    00000018                   : setup_rom.obj (.text:NOROM_SetupGetTrimForAmpcompTh1)
                  0000c594    00000018                   : setup_rom.obj (.text:NOROM_SetupGetTrimForDblrLoopFilterResetVoltage)
                  0000c5ac    00000018                   : setup_rom.obj (.text:NOROM_SetupGetTrimForRcOscLfIBiasTrim)
                  0000c5c4    00000018                   : setup_rom.obj (.text:NOROM_SetupGetTrimForXoscLfRegulatorAndCmirrwrRatio)
                  0000c5dc    00000018     drivers_cc13x0.aem3 : PINCC26XX.oem3 (.text:PIN_getConfig)
                  0000c5f4    00000018                         : PowerCC26XX.oem3 (.text:Power_idleFunc)
                  0000c60c    00000018     rf_multiMode_cc13x0.aem3 : RFCC26XX_multiMode.oem3 (.text:Q_pop)
                  0000c624    00000018     lcd.aem3 : SharpGrLib.oem3 (.text:SharpGrLib_init)
                  0000c63c    00000018     drivers_cc13x0.aem3 : UARTCC26XX.oem3 (.text:UARTCC26XX_init)
                  0000c654    00000018                         : UART.oem3 (.text:UART_Params_init)
                  0000c66c    00000018                         : PowerCC26XX.oem3 (.text:configureRFCoreClocks)
                  0000c684    00000018     rtsv7M3_T_le_eabi.lib : args_main.obj (.text)
                  0000c69c    00000018                           : ll_mul_t2.obj (.text)
                  0000c6b4    00000018     rf_multiMode_cc13x0.aem3 : RFCC26XX_multiMode.oem3 (.text:swiFxnFsm)
                  0000c6cc    00000018     release_pem3.oem3 (.text:ti_sysbios_BIOS_rtsUnlock__I)
                  0000c6e4    00000018     rom_sysbios.aem3 : rom_sysbios.obj (.text:ti_sysbios_knl_Swi_or__E)
                  0000c6fc    00000018     release_pem3.oem3 (.text:ti_sysbios_rom_cortexm_cc13xx_CC13xx_checkRevision__E)
                  0000c714    00000018     uble.obj (.text:uble_registerAntSwitchCB)
                  0000c72c    00000018     rom_sysbios.aem3 : rom_sysbios.obj (.text:xdc_runtime_Error_init__E)
                  0000c744    00000016     display.aem3 : DisplayUart.oem3 (.text:DisplayUartMin_close)
                  0000c75a    00000016     grlib.aem3 : display.oem3 (.text:Graphics_drawHorizontalLineOnDisplay)
                  0000c770    00000016     drivers_cc13x0.aem3 : List.oem3 (.text:List_remove)
                  0000c786    00000016     driverlib.lib : chipinfo.obj (.text:NOROM_ThisLibraryIsFor_CC13x0_HwRev20AndLater_HaltIfViolated)
                  0000c79c    00000016     release_pem3.oem3 (.text:ti_sysbios_BIOS_exitFunc__I)
                  0000c7b2    00000016     NodeTask.obj (.text:ti_sysbios_knl_Clock_Params_init)
                  0000c7c8    00000016     ugap.obj (.text:ti_sysbios_knl_Clock_Params_init)
                  0000c7de    00000016     ull.obj (.text:ti_sysbios_knl_Clock_Params_init)
                  0000c7f4    00000016     NodeRadioTask.obj (.text:ti_sysbios_knl_Event_Params_init)
                  0000c80a    00000016     NodeTask.obj (.text:ti_sysbios_knl_Event_Params_init)
                  0000c820    00000016     EasyLink.obj (.text:ti_sysbios_knl_Semaphore_Params_init)
                  0000c836    00000016     NodeRadioTask.obj (.text:ti_sysbios_knl_Semaphore_Params_init)
                  0000c84c    00000016     NodeRadioTask.obj (.text:ti_sysbios_knl_Task_Params_init)
                  0000c862    00000016     NodeTask.obj (.text:ti_sysbios_knl_Task_Params_init)
                  0000c878    00000014     NodeRadioTask.obj (.text:AONBatMonBatteryVoltageGet)
                  0000c88c    00000014     dpl_cc13x0.aem3 : ClockP_tirtos.oem3 (.text:ClockP_usleep)
                  0000c8a0    00000014     driverlib.lib : aon_rtc.obj (.text:NOROM_AONRTCCurrent64BitValueGet)
                  0000c8b4    00000014     drivers_cc13x0.aem3 : PINCC26XX.oem3 (.text:PINCC26XX_getInputValue)
                  0000c8c8    00000014                         : PINCC26XX.oem3 (.text:PINCC26XX_getOutputValue)
                  0000c8dc    00000014     rf_multiMode_cc13x0.aem3 : RFCC26XX_multiMode.oem3 (.text:RF_Params_init)
                  0000c8f0    00000014     drivers_cc13x0.aem3 : SPI.oem3 (.text:SPI_Params_init)
                  0000c904    00000014     NodeRadioTask.obj (.text:bleAdv_eventProxyCB)
                  0000c918    00000014     rtsv7M3_T_le_eabi.lib : _lock.obj (.text)
                  0000c92c    00000014                           : strlen.obj (.text)
                  0000c940    00000014     release_pem3.oem3 (.text:ti_sysbios_knl_Clock_doTick__I)
                  0000c954    00000014     rom_sysbios.aem3 : rom_sysbios.obj (.text:ti_sysbios_knl_Event_Instance_init__E)
                  0000c968    00000012     rf_multiMode_cc13x0.aem3 : RFCC26XX_multiMode.oem3 (.text:RF_schPriorityCompare)
                  0000c97a    00000012     drivers_cc13x0.aem3 : RingBuf.oem3 (.text:RingBuf_construct)
                  0000c98c    00000012     dpl_cc13x0.aem3 : SemaphoreP_tirtos.oem3 (.text:SemaphoreP_pend)
                  0000c99e    00000012     release_pem3.oem3 (.text:xdc_runtime_Startup_exec__I)
                  0000c9b0    00000010     dpl_cc13x0.aem3 : ClockP_tirtos.oem3 (.text:ClockP_isActive)
                  0000c9c0    00000010                     : HwiP_tirtos.oem3 (.text:HwiP_Params_init)
                  0000c9d0    00000010     driverlib.lib : rfc.obj (.text:NOROM_RFCRfTrimSet)
                  0000c9e0    00000010                   : setup_rom.obj (.text:NOROM_SetupGetTrimForXoscHfFastStart)
                  0000c9f0    00000010                   : setup_rom.obj (.text:NOROM_SetupGetTrimForXoscHfIbiastherm)
                  0000ca00    00000010     drivers_cc13x0.aem3 : PINCC26XX.oem3 (.text:PINCC26XX_getPinCount)
                  0000ca10    00000010     dpl_cc13x0.aem3 : SwiP_tirtos.oem3 (.text:SwiP_Params_init)
                  0000ca20    00000010     urfc.obj (.text:applyBlePatch)
                  0000ca30    00000010     smartrf_settings.obj (.text:applyGenfskPatch)
                  0000ca40    00000010     smartrf_settings_predefined.obj (.text:applyGenfskPatch)
                  0000ca50    00000010     smartrf_settings_predefined.obj (.text:applyGenookPatch)
                  0000ca60    00000010     smartrf_settings_predefined.obj (.text:applyLrmPatch)
                  0000ca70    00000010     smartrf_settings_predefined.obj (.text:applySl_longrangePatch)
                  0000ca80    00000010     NodeTask.obj (.text:fastReportTimeoutCallback)
                  0000ca90    00000010     rf_multiMode_cc13x0.aem3 : RFCC26XX_multiMode.oem3 (.text:isClientOwner)
                  0000caa0    00000010     rom_sysbios.aem3 : rom_sysbios.obj (.text:ti_sysbios_family_arm_m3_Hwi_post__E)
                  0000cab0    00000010     drivers_cc13x0.aem3 : UARTCC26XX.oem3 (.text:uartPostNotify)
                  0000cac0    00000010     rom_sysbios.aem3 : rom_sysbios.obj (.text:xdc_runtime_SysCallback_putch__E)
                  0000cad0    00000010                      : rom_sysbios.obj (.text:xdc_runtime_SysCallback_ready__E)
                  0000cae0    00000010                      : rom_sysbios.obj (.text:xdc_runtime_System_vsnprintf__E)
                  0000caf0    0000000e     grlib.aem3 : display.oem3 (.text:Graphics_drawPixelOnDisplay)
                  0000cafe    0000000e                : context.oem3 (.text:Graphics_setBackgroundColor)
                  0000cb0c    0000000e                : context.oem3 (.text:Graphics_setForegroundColor)
                  0000cb1a    0000000e     driverlib.lib : vims.obj (.text:NOROM_VIMSModeGet)
                  0000cb28    0000000e     drivers_cc13x0.aem3 : SPICC26XXDMA.oem3 (.text:SPICC26XXDMA_init)
                  0000cb36    0000000e     rtsv7M3_T_le_eabi.lib : copy_decompress_none.obj (.text:decompress:none)
                  0000cb44    0000000e     rom_sysbios.aem3 : rom_sysbios.obj (.text:ti_sysbios_family_arm_cc26xx_TimestampProvider_get32__E)
                  0000cb52    0000000c     NodeRadioTask.obj (.text:BleAdv_startAdvertising)
                  0000cb5e    0000000c     display.aem3 : Display.oem3 (.text:Display_doClear)
                  0000cb6a    00000002     rom_sysbios.aem3 : rom_sysbios.obj (.text:xdc_runtime_SysCallback_defaultExit)
                  0000cb6c    0000000c     rf_multiMode_cc13x0.aem3 : RFCC26XX_multiMode.oem3 (.text:FsmNextState)
                  0000cb78    0000000c     drivers_cc13x0.aem3 : List.oem3 (.text:List_empty)
                  0000cb84    0000000c     driverlib.lib : cpu.obj (.text:NOROM_CPUcpsid)
                  0000cb90    0000000c                   : cpu.obj (.text:NOROM_CPUcpsie)
                  0000cb9c    0000000c                   : osc.obj (.text:NOROM_OSC_HPOSCRelativeFrequencyOffsetToRFCoreFormatConvert)
                  0000cba8    0000000c     drivers_cc13x0.aem3 : PINCC26XX.oem3 (.text:PIN_registerIntCb)
                  0000cbb4    0000000c                         : PowerCC26XX.oem3 (.text:Power_getConstraintMask)
                  0000cbc0    0000000c                         : PowerCC26XX.oem3 (.text:Power_getDependencyCount)
                  0000cbcc    0000000c     dpl_cc13x0.aem3 : SemaphoreP_tirtos.oem3 (.text:SemaphoreP_delete)
                  0000cbd8    0000000c     NodeRadioTask.obj (.text:TRNGDisable)
                  0000cbe4    0000000c     NodeRadioTask.obj (.text:TRNGEnable)
                  0000cbf0    0000000c     NodeRadioTask.obj (.text:TRNGStatusGet)
                  0000cbfc    0000000c     rtsv7M3_T_le_eabi.lib : copy_zero_init.obj (.text:decompress:ZI)
                  0000cc08    0000000c     NodeRadioTask.obj (.text:nodeRadioTask_getNodeAddr)
                  0000cc14    0000000c     drivers_cc13x0.aem3 : SPICC26XXDMA.oem3 (.text:spiPostNotify)
                  0000cc20    0000000c     NodeTask.obj (.text:ti_sysbios_knl_Clock_handle)
                  0000cc2c    0000000c     ugap.obj (.text:ti_sysbios_knl_Clock_handle)
                  0000cc38    0000000c     ull.obj (.text:ti_sysbios_knl_Clock_handle)
                  0000cc44    0000000c     release_pem3.oem3 (.text:ti_sysbios_knl_Event_Params__init__S)
                  0000cc50    0000000c     NodeRadioTask.obj (.text:ti_sysbios_knl_Event_handle)
                  0000cc5c    0000000c     NodeTask.obj (.text:ti_sysbios_knl_Event_handle)
                  0000cc68    0000000c     uble.obj (.text:ti_sysbios_knl_Queue_handle)
                  0000cc74    0000000c     NodeRadioTask.obj (.text:ti_sysbios_knl_Semaphore_handle)
                  0000cc80    0000000c     rom_sysbios.aem3 : rom_sysbios.obj (.text:ti_sysbios_knl_Swi_getTrigger__E)
                  0000cc8c    0000000c     release_pem3.oem3 (.text:xdc_runtime_Startup_reset__I)
                  0000cc98    0000000c     rom_sysbios.aem3 : rom_sysbios.obj (.text:xdc_runtime_Startup_rtsDone__E)
                  0000cca4    0000000a     NodeRadioTask.obj (.text:BleAdv_stopAdvertising)
                  0000ccae    0000000a     grlib.aem3 : context.oem3 (.text:Graphics_clearDisplay)
                  0000ccb8    0000000a                : display.oem3 (.text:Graphics_clearDisplayOnDisplay)
                  0000ccc2    0000000a                : display.oem3 (.text:Graphics_fillRectangleOnDisplay)
                  0000cccc    0000000a                : display.oem3 (.text:Graphics_flushOnDisplay)
                  0000ccd6    0000000a                : display.oem3 (.text:Graphics_translateColorOnDisplay)
                  0000cce0    0000000a     drivers_cc13x0.aem3 : SPI.oem3 (.text:SPI_close)
                  0000ccea    0000000a                         : SPI.oem3 (.text:SPI_transfer)
                  0000ccf4    0000000a     lcd.aem3 : SharpGrLib.oem3 (.text:SharpGrLib_colorTranslate)
                  0000ccfe    0000000a     drivers_cc13x0.aem3 : UART.oem3 (.text:UART_close)
                  0000cd08    0000000a                         : UART.oem3 (.text:UART_control)
                  0000cd12    0000000a                         : UART.oem3 (.text:UART_write)
                  0000cd1c    0000000a                         : UDMACC26XX.oem3 (.text:UDMACC26XX_hwiIntFxn)
                  0000cd26    00000002     rom_sysbios.aem3 : rom_sysbios.obj (.text:xdc_runtime_SysCallback_defaultPutch)
                  0000cd28    00000008     display.aem3 : DisplaySharp.oem3 (.text:DisplaySharp_getType)
                  0000cd30    00000008     rf_multiMode_cc13x0.aem3 : RFCC26XX_multiMode.oem3 (.text:RF_flushCmd)
                  0000cd38    00000008     drivers_cc13x0.aem3 : SPICC26XXDMA.oem3 (.text:SPICC26XXDMA_transferCallback)
                  0000cd40    00000008     dpl_cc13x0.aem3 : SemaphoreP_tirtos.oem3 (.text:SemaphoreP_Params_init)
                  0000cd48    00000008     drivers_cc13x0.aem3 : UARTCC26XX.oem3 (.text:readSemCallback)
                  0000cd50    00000008     urfc.obj (.text:rf_patch_cpe_ble)
                  0000cd58    00000008     smartrf_settings.obj (.text:rf_patch_cpe_genfsk)
                  0000cd60    00000008     smartrf_settings_predefined.obj (.text:rf_patch_cpe_genfsk)
                  0000cd68    00000008     smartrf_settings_predefined.obj (.text:rf_patch_cpe_genook)
                  0000cd70    00000008     smartrf_settings_predefined.obj (.text:rf_patch_cpe_lrm)
                  0000cd78    00000008     smartrf_settings_predefined.obj (.text:rf_patch_cpe_sl_longrange)
                  0000cd80    00000008     drivers_cc13x0.aem3 : UARTCC26XX.oem3 (.text:writeSemCallback)
                  0000cd88    00000006     dpl_cc13x0.aem3 : ClockP_tirtos.oem3 (.text:ClockP_Params_init)
                  0000cd8e    00000006     display.aem3 : DisplayUart.oem3 (.text:DisplayUartMin_control)
                  0000cd94    00000006                  : DisplayUart.oem3 (.text:DisplayUartMin_getType)
                  0000cd9a    00000006                  : Display.oem3 (.text:Display_doParamsInit)
                  0000cda0    00000006     grlib.aem3 : context.oem3 (.text:Graphics_flushBuffer)
                  0000cda6    00000006     driverlib.lib : cpu.obj (.text:NOROM_CPUdelay)
                  0000cdac    00000006     drivers_cc13x0.aem3 : UARTCC26XX.oem3 (.text:UARTCC26XX_readPolling)
                  0000cdb2    00000006                         : UARTCC26XX.oem3 (.text:UARTCC26XX_writePolling)
                  0000cdb8    00000006     rf_multiMode_cc13x0.aem3 : RFCC26XX_multiMode.oem3 (.text:clkReqAccessFxn)
                  0000cdbe    00000006     rom_sysbios.aem3 : rom_sysbios.obj (.text:ti_sysbios_family_arm_m3_Hwi_setFunc__E)
                  0000cdc4    00000004     dpl_cc13x0.aem3 : ClockP_tirtos.oem3 (.text:ClockP_destruct)
                  0000cdc8    00000004                     : ClockP_tirtos.oem3 (.text:ClockP_getCpuFreq)
                  0000cdcc    00000004                     : ClockP_tirtos.oem3 (.text:ClockP_setTimeout)
                  0000cdd0    00000004                     : ClockP_tirtos.oem3 (.text:ClockP_start)
                  0000cdd4    00000004                     : ClockP_tirtos.oem3 (.text:ClockP_stop)
                  0000cdd8    00000004     grlib.aem3 : context.oem3 (.text:Graphics_setFont)
                  0000cddc    00000004     dpl_cc13x0.aem3 : HwiP_tirtos.oem3 (.text:HwiP_destruct)
                  0000cde0    00000004                     : HwiP_tirtos.oem3 (.text:HwiP_disable)
                  0000cde4    00000004                     : HwiP_tirtos.oem3 (.text:HwiP_enableInterrupt)
                  0000cde8    00000004                     : HwiP_tirtos.oem3 (.text:HwiP_post)
                  0000cdec    00000004                     : HwiP_tirtos.oem3 (.text:HwiP_setFunc)
                  0000cdf0    00000004                     : HwiP_tirtos.oem3 (.text:HwiP_setPriority)
                  0000cdf4    00000004     drivers_cc13x0.aem3 : List.oem3 (.text:List_head)
                  0000cdf8    00000004                         : List.oem3 (.text:List_next)
                  0000cdfc    00000004                         : PowerCC26XX.oem3 (.text:PowerCC26XX_switchXOSC_HF)
                  0000ce00    00000004     rf_multiMode_cc13x0.aem3 : RFCC26XX_multiMode.oem3 (.text:Q_peek)
                  0000ce04    00000004                              : RFCC26XX_multiMode.oem3 (.text:RF_runImmediateCmd)
                  0000ce08    00000004     dpl_cc13x0.aem3 : SemaphoreP_tirtos.oem3 (.text:SemaphoreP_destruct)
                  0000ce0c    00000004                     : SemaphoreP_tirtos.oem3 (.text:SemaphoreP_post)
                  0000ce10    00000004                     : SwiP_tirtos.oem3 (.text:SwiP_destruct)
                  0000ce14    00000004                     : SwiP_tirtos.oem3 (.text:SwiP_disable)
                  0000ce18    00000004                     : SwiP_tirtos.oem3 (.text:SwiP_getTrigger)
                  0000ce1c    00000004                     : SwiP_tirtos.oem3 (.text:SwiP_or)
                  0000ce20    00000004                     : SwiP_tirtos.oem3 (.text:SwiP_post)
                  0000ce24    00000004                     : SwiP_tirtos.oem3 (.text:SwiP_setPriority)
                  0000ce28    00000004                     : SystemP_tirtos.oem3 (.text:SystemP_vsnprintf)
                  0000ce2c    00000004     drivers_cc13x0.aem3 : PowerCC26XX.oem3 (.text:nopResourceHandler)
                  0000ce30    00000004     rom_sysbios.aem3 : rom_sysbios.obj (.text:ti_sysbios_family_arm_cc26xx_Timer_getCount64__E)
                  0000ce34    00000004                      : rom_sysbios.obj (.text:ti_sysbios_knl_Clock_isActive__E)
                  0000ce38    00000004                      : rom_sysbios.obj (.text:xdc_runtime_SysCallback_defaultReady)
                  0000ce3c    00000008     (.tramp.ti_sysbios_knl_Swi_destruct.1)
                  0000ce44    00000008     (.tramp.ti_sysbios_knl_Semaphore_destruct.1)
                  0000ce4c    00000008     (.tramp.ti_sysbios_family_arm_m3_Hwi_setPriority__E.1)
                  0000ce54    00000008     (.tramp.ti_sysbios_family_arm_m3_Hwi_enableInterrupt__E.1)
                  0000ce5c    00000008     (.tramp.ti_sysbios_family_arm_m3_Hwi_destruct.1)
                  0000ce64    00000008     (.tramp.ti_sysbios_BIOS_getCpuFreq__E.1)
                  0000ce6c    00000008     (.tramp.ti_sysbios_knl_Clock_destruct.1)
                  0000ce74    00000008     (.tramp.xdc_runtime_Core_assignParams__I.1)
                  0000ce7c    00000008     (.tramp.ti_sysbios_knl_Semaphore_delete.1)
                  0000ce84    00000008     (.tramp.xdc_runtime_Startup_startMods__I.1)
                  0000ce8c    00000008     (.tramp.ti_sysbios_knl_Clock_logTick__E.1)
                  0000ce94    00000008     (.tramp.ti_sysbios_knl_Task_Params__init__S.1)
                  0000ce9c    00000008     (.tramp.ti_sysbios_knl_Swi_post__E.1)
                  0000cea4    00000008     (.tramp.ti_sysbios_BIOS_RtsGateProxy_leave__E.1)
                  0000ceac    00000008     (.tramp.ti_sysbios_BIOS_start__E.1)
                  0000ceb4    00000008     (.tramp.xdc_runtime_Memory_free__E.1)
                  0000cebc    00000008     (.tramp.ti_sysbios_knl_Swi_construct.1)
                  0000cec4    00000008     (.tramp.ti_sysbios_BIOS_RtsGateProxy_enter__E.1)
                  0000cecc    00000008     (.tramp.xdc_runtime_Core_constructObject__I.1)
                  0000ced4    00000008     (.tramp.xdc_runtime_Memory_alloc__E.1)
                  0000cedc    00000008     (.tramp.ti_sysbios_knl_Task_startup__E.1)
                  0000cee4    00000008     (.tramp.ti_sysbios_knl_Swi_startup__E.1)
                  0000ceec    00000008     (.tramp.ti_sysbios_hal_Hwi_startup__E.1)
                  0000cef4    00000008     (.tramp.ti_sysbios_family_arm_cc26xx_Timer_startup__E.1)
                  0000cefc    00000008     (.tramp.xdc_runtime_System_atexit__E.1)
                  0000cf04    00000008     (.tramp.ti_sysbios_BIOS_setThreadType__E.1)
                  0000cf0c    00000008     (.tramp.ti_sysbios_knl_Queue_Object__get__S.1)
                  0000cf14    00000008     (.tramp.ti_sysbios_knl_Semaphore_Params__init__S.1)
                  0000cf1c    00000008     (.tramp.ti_sysbios_family_arm_m3_Hwi_construct.1)
                  0000cf24    00000008     (.tramp.ti_sysbios_knl_Swi_Params__init__S.1)
                  0000cf2c    00000008     (.tramp.ti_sysbios_family_arm_m3_Hwi_Params__init__S.1)
                  0000cf34    00000008     (.tramp.xdc_runtime_System_exit__E.1)
                  0000cf3c    00000008     (.tramp.ti_sysbios_knl_Queue_get__E.1)
                  0000cf44    00000008     (.tramp.ti_sysbios_knl_Clock_Params__init__S.1)
                  0000cf4c    00000008     (.tramp.ti_sysbios_heaps_HeapMem_restore__E.1)
                  0000cf54    00000008     (.tramp.ti_sysbios_heaps_HeapMem_Object__get__S.1)
                  0000cf5c    00000008     (.tramp.ti_sysbios_knl_Task_unblockI__E.1)
                  0000cf64    00000008     (.tramp.ti_sysbios_knl_Queue_remove__E.1)
                  0000cf6c    00000008     (.tramp.ti_sysbios_knl_Queue_head__E.1)
                  0000cf74    00000008     (.tramp.ti_sysbios_knl_Queue_empty__E.1)
                  0000cf7c    00000008     (.tramp.ti_sysbios_knl_Queue_put__E.1)
                  0000cf84    00000008     (.tramp.ti_sysbios_knl_Queue_construct.1)
                  0000cf8c    00000008     (.tramp.ti_sysbios_knl_Clock_scheduleNextTick__E.1)
                  0000cf94    00000008     (.tramp.ti_sysbios_knl_Clock_walkQueueDynamic__E.1)
                  0000cf9c    00000008     (.tramp.ti_sysbios_knl_Clock_TimerProxy_getCurrentTick__E.1)
                  0000cfa4    00000008     (.tramp.ti_sysbios_knl_Clock_construct.1)
                  0000cfac    00000008     (.tramp.ti_sysbios_knl_Task_construct.1)
                  0000cfb4    00000008     (.tramp.ti_sysbios_knl_Semaphore_construct.1)
                  0000cfbc    00000008     (.tramp.ti_sysbios_knl_Clock_removeI__E.1)
                  0000cfc4    00000008     (.tramp.ti_sysbios_knl_Task_restore__E.1)
                  0000cfcc    00000008     (.tramp.ti_sysbios_knl_Clock_startI__E.1)
                  0000cfd4    00000008     (.tramp.ti_sysbios_knl_Task_blockI__E.1)
                  0000cfdc    00000008     (.tramp.ti_sysbios_knl_Queue_enqueue__E.1)
                  0000cfe4    00000008     (.tramp.ti_sysbios_knl_Task_disable__E.1)
                  0000cfec    00000008     (.tramp.ti_sysbios_knl_Task_self__E.1)
                  0000cff4    00000008     (.tramp.ti_sysbios_knl_Clock_addI__E.1)
                  0000cffc    00000008     (.tramp.ti_sysbios_knl_Swi_disable__E.1)
                  0000d004    00000008     (.tramp.ti_sysbios_knl_Task_sleep__E.1)
                  0000d00c    00000008     (.tramp.ti_sysbios_knl_Semaphore_pend__E.1)
                  0000d014    00000008     (.tramp.ti_sysbios_knl_Swi_restore__E.1)
                  0000d01c    00000008     (.tramp.ti_sysbios_family_arm_m3_Hwi_disableFxn__E.1)
                  0000d024    00000008     (.tramp.ti_sysbios_knl_Clock_start__E.1)
                  0000d02c    00000008     (.tramp.ti_sysbios_knl_Clock_setTimeout__E.1)
                  0000d034    00000008     (.tramp.ti_sysbios_knl_Clock_getTicks__E.1)

.const     0    0000d03c    00005254     
                  0000d03c    0000073c     smartrf_settings_predefined.obj (.const:patchGenookMce)
                  0000d778    000006b4     smartrf_settings.obj (.const:patchGenfskRfe)
                  0000de2c    000006b4     smartrf_settings_predefined.obj (.const:patchGenfskRfe)
                  0000e4e0    000006b4     smartrf_settings_predefined.obj (.const:patchLrmRfe)
                  0000eb94    000006b4     smartrf_settings_predefined.obj (.const:patchSl_longrangeRfe)
                  0000f248    000006a4     smartrf_settings_predefined.obj (.const:patchGenookRfe)
                  0000f8ec    00000504     smartrf_settings_predefined.obj (.const:patchHsp4mbpsRfe)
                  0000fdf0    000004dc     urfc.obj (.const:patchBleRfe)
                  000102cc    00000400     smartrf_settings_predefined.obj (.const:patchSl_longrangeMce)
                  000106cc    000003f0     smartrf_settings_predefined.obj (.const:patchHsp4mbpsMce)
                  00010abc    000002f8     grlib.aem3 : fontfixed6x8.oem3 (.const:.string:g_pucFontFixed6x8Data)
                  00010db4    000002b0     smartrf_settings.obj (.const:patchImageGenfsk)
                  00011064    000002b0     smartrf_settings_predefined.obj (.const:patchImageGenfsk)
                  00011314    000002b0     smartrf_settings_predefined.obj (.const:patchImageGenook)
                  000115c4    000002b0     smartrf_settings_predefined.obj (.const:patchImageLrm)
                  00011874    000002b0     smartrf_settings_predefined.obj (.const:patchImageSl_longrange)
                  00011b24    0000011c     urfc.obj (.const:patchImageBle)
                  00011c40    000000c8     grlib.aem3 : fontfixed6x8.oem3 (.const:g_sFontFixed6x8)
                  00011d08    00000086     NodeTask.obj (.const:.string)
                  00011d8e    00000001     display.aem3 : Display.oem3 (.const:Display_defaultParams)
                  00011d8f    00000001     urfc.obj (.const)
                  00011d90    00000066     BleAdv.obj (.const:.string)
                  00011df6    0000004c     drivers_cc13x0.aem3 : PowerCC26XX.oem3 (.const:resourceDB)
                  00011e42    00000001     release_pem3.oem3 (.const:xdc_runtime_Text_charTab__A)
                  00011e43    00000001     --HOLE-- [fill = 0]
                  00011e44    00000048     release_pem3.oem3 (.const:.string)
                  00011e8c    00000040     drivers_cc13x0.aem3 : UARTCC26XX.oem3 (.const:$O1$$)
                  00011ecc    00000040     CC1350_LAUNCHXL.obj (.const:spiCC26XXDMAHWAttrs)
                  00011f0c    00000038     drivers_cc13x0.aem3 : SPICC26XXDMA.oem3 (.const:$O1$$)
                  00011f44    00000034     CC1350_LAUNCHXL.obj (.const:BoardGpioInitTable)
                  00011f78    00000028     drivers_cc13x0.aem3 : UARTCC26XX.oem3 (.const:UARTCC26XX_fxnTable)
                  00011fa0    00000027     urfc.obj (.const:ubTxPowerVal)
                  00011fc7    00000001     --HOLE-- [fill = 0]
                  00011fc8    00000024     drivers_cc13x0.aem3 : UART.oem3 (.const:UART_defaultParams)
                  00011fec    00000024     release_pem3.oem3 (.const:xdc_runtime_Startup_sfxnTab__A)
                  00012010    00000020     display.aem3 : DisplaySharp.oem3 (.const:DisplaySharp_fxnTable)
                  00012030    00000020                  : DisplayUart.oem3 (.const:DisplayUartMin_fxnTable)
                  00012050    00000020     drivers_cc13x0.aem3 : SPI.oem3 (.const:SPI_defaultParams)
                  00012070    00000020     lcd.aem3 : SharpGrLib.oem3 (.const:g_sharpFxns)
                  00012090    00000020     release_pem3.oem3 (.const:ti_sysbios_knl_Event_Object__DESC__C)
                  000120b0    00000020     CC1350_LAUNCHXL.obj (.const:uartCC26XXHWAttrs)
                  000120d0    0000001c     rf_multiMode_cc13x0.aem3 : RFCC26XX_multiMode.oem3 (.const:RF_defaultParams)
                  000120ec    0000001c     uble.obj (.const:ubParamLookup)
                  00012108    00000018     BleAdv.obj (.const:BleAdv_defaultParams)
                  00012120    00000018     CC1350_LAUNCHXL.obj (.const:Display_config)
                  00012138    00000018     CC1350_LAUNCHXL.obj (.const:PowerCC26XX_config)
                  00012150    00000018     drivers_cc13x0.aem3 : SPICC26XXDMA.oem3 (.const:SPICC26XXDMA_fxnTable)
                  00012168    00000018     CC1350_LAUNCHXL.obj (.const:SPI_config)
                  00012180    00000018     driverlib.lib : rfc.obj (.const:rfc_defaultIrqAddr)
                  00012198    00000018     release_pem3.oem3 (.const:ti_sysbios_knl_Event_Object__PARAMS__C)
                  000121b0    00000014     CC1350_LAUNCHXL.obj (.const:displayUartHWAttrs)
                  000121c4    00000012     release_pem3.oem3 (.const:xdc_runtime_Startup_sfxnRts__A)
                  000121d6    00000010     lcd.aem3 : SharpGrLib.oem3 (.const:.string:referse_data)
                  000121e6    00000002     --HOLE-- [fill = 0]
                  000121e8    00000010     CC1350_LAUNCHXL.obj (.const:displaySharpHWattrs)
                  000121f8    00000010     urfc.obj (.const:ubRfMode)
                  00012208    0000000c     EasyLink.obj (.const:EasyLink_defaultParams)
                  00012214    0000000c     CC1350_LAUNCHXL.obj (.const:UART_config)
                  00012220    0000000c     release_pem3.oem3 (.const:xdc_runtime_Startup_firstFxns__A)
                  0001222c    00000009     CC1350_LAUNCHXL.obj (.const)
                  00012235    00000003     --HOLE-- [fill = 0]
                  00012238    00000008     CC1350_LAUNCHXL.obj (.const:PINCC26XX_hwAttrs)
                  00012240    00000008     CC1350_LAUNCHXL.obj (.const:UDMACC26XX_config)
                  00012248    00000008     uble.obj (.const:ubProcessMsg)
                  00012250    00000008     CC1350_LAUNCHXL.obj (.const:udmaHWAttrs)
                  00012258    00000005     urfc.obj (.const:ubTxPowerTable)
                  0001225d    00000004     CC1350_LAUNCHXL.obj (.const:RFCC26XX_hwAttrs)
                  00012261    00000003     --HOLE-- [fill = 0]
                  00012264    00000004     release_pem3.oem3 (.const:ti_sysbios_family_arm_m3_Hwi_swiDisable__C)
                  00012268    00000004     release_pem3.oem3 (.const:ti_sysbios_family_arm_m3_Hwi_swiRestoreHwi__C)
                  0001226c    00000004     release_pem3.oem3 (.const:ti_sysbios_heaps_HeapMem_primaryHeapBaseAddr__C)
                  00012270    00000004     release_pem3.oem3 (.const:ti_sysbios_heaps_HeapMem_primaryHeapEndAddr__C)
                  00012274    00000004     release_pem3.oem3 (.const:ti_sysbios_knl_Clock_tickPeriod__C)
                  00012278    00000004     release_pem3.oem3 (.const:ti_sysbios_knl_Clock_triggerClock__C)
                  0001227c    00000004     release_pem3.oem3 (.const:ti_sysbios_knl_Event_Instance_State_pendQ__O)
                  00012280    00000004     release_pem3.oem3 (.const:ti_sysbios_knl_Idle_funcList__A)
                  00012284    00000004     release_pem3.oem3 (.const:xdc_runtime_SysCallback_putchFxn__C)
                  00012288    00000004     release_pem3.oem3 (.const:xdc_runtime_SysCallback_readyFxn__C)
                  0001228c    00000004     release_pem3.oem3 (.const:xdc_runtime_System_extendFxn__C)

.cinit     0    00012290    00000580     
                  00012290    00000404     (.cinit..data.load) [load image, compression = lzss]
                  00012694    00000029     (.cinit..data:ti_sysbios_family_arm_m3_Hwi_Module__state__V.load) [load image, compression = lzss]
                  000126bd    00000021     (.cinit..data:ti_sysbios_knl_Task_Module__state__V.load) [load image, compression = lzss]
                  000126de    0000001f     (.cinit..data:ti_sysbios_BIOS_Module__state__V.load) [load image, compression = lzss]
                  000126fd    0000001e     (.cinit..data:ti_sysbios_knl_Clock_Module__state__V.load) [load image, compression = lzss]
                  0001271b    00000010     (.cinit..data:ti_sysbios_knl_Swi_Module__state__V.load) [load image, compression = lzss]
                  0001272b    00000001     --HOLE-- [fill = 0]
                  0001272c    0000000c     (__TI_handler_table)
                  00012738    0000000b     (.cinit..data:ti_sysbios_family_arm_cc26xx_Timer_Module__state__V.load) [load image, compression = lzss]
                  00012743    0000000b     (.cinit..data:xdc_runtime_System_Module__state__V.load) [load image, compression = lzss]
                  0001274e    00000002     --HOLE-- [fill = 0]
                  00012750    00000008     (.cinit..TI.bound:dmaSpi0RxControlTableEntry.load) [load image, compression = zero_init]
                  00012758    00000008     (.cinit..TI.bound:dmaSpi0TxControlTableEntry.load) [load image, compression = zero_init]
                  00012760    00000008     (.cinit..TI.bound:dmaSpi1RxControlTableEntry.load) [load image, compression = zero_init]
                  00012768    00000008     (.cinit..TI.bound:dmaSpi1TxControlTableEntry.load) [load image, compression = zero_init]
                  00012770    00000008     (.cinit..bss.load) [load image, compression = zero_init]
                  00012778    00000008     (.cinit..data:xdc_runtime_Memory_Module__state__V.load) [load image, compression = lzss]
                  00012780    00000007     (.cinit..data:ti_sysbios_family_arm_cc26xx_TimestampProvider_Module__state__V.load) [load image, compression = lzss]
                  00012787    00000007     (.cinit..data:xdc_runtime_Startup_Module__state__V.load) [load image, compression = lzss]
                  0001278e    00000002     --HOLE-- [fill = 0]
                  00012790    00000080     (__TI_cinit_table)

.init_array 
*          0    00000000    00000000     UNINITIALIZED

.ccfg      0    0001ffa8    00000058     
                  0001ffa8    00000058     ccfg.obj (.ccfg:retain)

.vecs      0    20000000    000000c8     NOLOAD SECTION
                  20000000    000000c8     release_pem3.oem3 (.vecs)

.data:ti_sysbios_knl_Task_Module__state__V 
*          0    20000100    00000044     UNINITIALIZED
                  20000100    00000044     release_pem3.oem3 (.data:ti_sysbios_knl_Task_Module__state__V)

.data:ti_sysbios_family_arm_m3_Hwi_Module__state__V 
*          0    20000144    00000034     UNINITIALIZED
                  20000144    00000034     release_pem3.oem3 (.data:ti_sysbios_family_arm_m3_Hwi_Module__state__V)

.data:ti_sysbios_knl_Clock_Module__state__V 
*          0    20000178    0000002c     UNINITIALIZED
                  20000178    0000002c     release_pem3.oem3 (.data:ti_sysbios_knl_Clock_Module__state__V)

.data:ti_sysbios_BIOS_Module__state__V 
*          0    200001a4    00000024     UNINITIALIZED
                  200001a4    00000024     release_pem3.oem3 (.data:ti_sysbios_BIOS_Module__state__V)

.data:ti_sysbios_knl_Swi_Module__state__V 
*          0    200001c8    0000001c     UNINITIALIZED
                  200001c8    0000001c     release_pem3.oem3 (.data:ti_sysbios_knl_Swi_Module__state__V)

.data:ti_sysbios_family_arm_cc26xx_Timer_Module__state__V 
*          0    200001e4    00000008     UNINITIALIZED
                  200001e4    00000008     release_pem3.oem3 (.data:ti_sysbios_family_arm_cc26xx_Timer_Module__state__V)

.data:ti_sysbios_family_arm_cc26xx_TimestampProvider_Module__state__V 
*          0    200001ec    00000004     UNINITIALIZED
                  200001ec    00000004     release_pem3.oem3 (.data:ti_sysbios_family_arm_cc26xx_TimestampProvider_Module__state__V)

.data:xdc_runtime_Startup_Module__state__V 
*          0    200001f0    00000008     UNINITIALIZED
                  200001f0    00000008     release_pem3.oem3 (.data:xdc_runtime_Startup_Module__state__V)

.data:xdc_runtime_System_Module__state__V 
*          0    200001f8    00000008     UNINITIALIZED
                  200001f8    00000008     release_pem3.oem3 (.data:xdc_runtime_System_Module__state__V)

.data:xdc_runtime_Memory_Module__state__V 
*          0    20000200    00000004     UNINITIALIZED
                  20000200    00000004     release_pem3.oem3 (.data:xdc_runtime_Memory_Module__state__V)

.TI.bound:dmaSpi0RxControlTableEntry 
*          0    20000430    00000010     UNINITIALIZED
                  20000430    00000010     drivers_cc13x0.aem3 : SPICC26XXDMA.oem3 (.TI.bound:dmaSpi0RxControlTableEntry)

.TI.bound:dmaSpi0TxControlTableEntry 
*          0    20000440    00000010     UNINITIALIZED
                  20000440    00000010     drivers_cc13x0.aem3 : SPICC26XXDMA.oem3 (.TI.bound:dmaSpi0TxControlTableEntry)

.TI.bound:dmaSpi1RxControlTableEntry 
*          0    20000500    00000010     UNINITIALIZED
                  20000500    00000010     drivers_cc13x0.aem3 : SPICC26XXDMA.oem3 (.TI.bound:dmaSpi1RxControlTableEntry)

.TI.bound:dmaSpi1TxControlTableEntry 
*          0    20000510    00000010     UNINITIALIZED
                  20000510    00000010     drivers_cc13x0.aem3 : SPICC26XXDMA.oem3 (.TI.bound:dmaSpi1TxControlTableEntry)

.bss       0    20000520    00001f83     UNINITIALIZED
                  20000520    00000480     CC1350_LAUNCHXL.obj (.bss:sharpDisplayBuf)
                  200009a0    00000400     NodeRadioTask.obj (.bss:nodeRadioTaskStack)
                  20000da0    00000400     NodeTask.obj (.bss:nodeTaskStack)
                  200011a0    00000310     rf_multiMode_cc13x0.aem3 : RFCC26XX_multiMode.oem3 (.bss:$O1$$)
                  200014b0    00000200     release_pem3.oem3 (.bss:taskStackSection)
                  200016b0    000001b8     (.common:spiCC26XXDMAObjects)
                  20001868    0000012c     (.common:uartCC26XXObjects)
                  20001994    00000004     uble.obj (.bss)
                  20001998    000000c8     EasyLink.obj (.bss:rfObject)
                  20001a60    000000c8     urfi.obj (.bss:urObject)
                  20001b28    000000c8     (.common:ti_sysbios_family_arm_m3_Hwi_dispatchTable)
                  20001bf0    0000009c     NodeRadioTask.obj (.bss:currentRadioOperation)
                  20001c8c    00000098     EasyLink.obj (.bss:rxBuffer)
                  20001d24    00000098     EasyLink.obj (.bss:rxPacket$3)
                  20001dbc    0000008c     EasyLink.obj (.bss:txBuffer)
                  20001e48    00000080     CC1350_LAUNCHXL.obj (.bss:uartStringBuf)
                  20001ec8    0000006c     (.common:displaySharpObject)
                  20001f34    0000005c     (.common:Room)
                  20001f90    00000050     (.common:nodeRadioTask)
                  20001fe0    00000050     (.common:nodeTask)
                  20002030    00000048     (.common:urAdvCmd)
                  20002078    0000003c     NodeRadioTask.obj (.bss:nodeRadioTaskParams)
                  200020b4    0000003c     NodeTask.obj (.bss:nodeTaskParams)
                  200020f0    00000034     NodeRadioTask.obj (.bss)
                  20002124    00000030     EasyLink.obj (.bss:EasyLink_cmdPropRxAdv)
                  20002154    0000002c     NodeRadioTask.obj (.bss:dmThermostatPacket)
                  20002180    00000028     EasyLink.obj (.bss:EasyLink_cmdPropRadioSetup)
                  200021a8    00000024     ull.obj (.bss:cAdvAboutTo)
                  200021cc    00000024     ull.obj (.bss:cAdvInt)
                  200021f0    00000024     scif_framework.obj (.bss:scifData)
                  20002214    00000024     (.common:cBcastDuty)
                  20002238    00000024     (.common:fastReportTimeoutClock)
                  2000225c    00000020     (.common:uartCC26XXRingBuffer)
                  2000227c    00000020     (.common:udmaObjects)
                  2000229c    0000001c     EasyLink.obj (.bss:EasyLink_cmdPropCs)
                  200022b8    0000001c     NodeTask.obj (.bss)
                  200022d4    0000001c     EasyLink.obj (.bss:rfParams)
                  200022f0    0000001c     urfi.obj (.bss:urParams)
                  2000230c    0000001c     (.common:radioAccessSem)
                  20002328    0000001c     (.common:radioResultSem)
                  20002344    00000018     EasyLink.obj (.bss)
                  2000235c    00000018     EasyLink.obj (.bss:EasyLink_cmdFs)
                  20002374    00000018     EasyLink.obj (.bss:EasyLink_cmdPropTx)
                  2000238c    00000018     BleAdv.obj (.bss:bleAdv_params)
                  200023a4    00000014     driverlib.lib : osc.obj (.bss:oscHfGlobals)
                  200023b8    00000014     (.common:nodeEvent)
                  200023cc    00000014     (.common:radioOperationEvent)
                  200023e0    00000010     EasyLink.obj (.bss:EasyLink_RF_prop)
                  200023f0    0000000c     BleAdv.obj (.bss:blePinState)
                  200023fc    0000000c     NodeTask.obj (.bss:buttonPinState)
                  20002408    0000000c     NodeTask.obj (.bss:ledPinState)
                  20002414    0000000c     uble.obj (.bss:qEvtMsg)
                  20002420    0000000c     EasyLink.obj (.bss:rxStatistics)
                  2000242c    0000000c     ugap.obj (.bss:ugbAppCBs)
                  20002438    0000000c     (.common:displayUartObject)
                  20002444    00000008     dpl_cc13x0.aem3 : PowerCC26XX_tirtos.oem3 (.bss:$O1$$)
                  2000244c    00000008     EasyLink.obj (.bss:dataQueue)
                  20002454    00000008     driverlib.lib : sys_ctrl.obj (.bss:powerQualGlobals)
                  2000245c    00000008     BleAdv.obj (.bss:uidInstanceId)
                  20002464    00000008     ull.obj (.bss)
                  2000246c    00000008     (.common:propAdvFrame)
                  20002474    00000008     (.common:tlmAdvFrame)
                  2000247c    00000008     (.common:ubBDAddr)
                  20002484    00000008     (.common:uidAdvFrame)
                  2000248c    00000008     (.common:urlAdvFrame)
                  20002494    00000004     (.common:ClockP_tickPeriod)
                  20002498    00000004     (.common:blePinHandle)
                  2000249c    00000002     drivers_cc13x0.aem3 : UARTCC26XX.oem3 (.bss)
                  2000249e    00000002     rf_multiMode_cc13x0.aem3 : RFCC26XX_multiMode.oem3 (.bss)
                  200024a0    00000002     ugap.obj (.bss)
                  200024a2    00000001     (.common:driverlib_release_0_49471)

.priheap   0    200024a8    00001000     UNINITIALIZED
                  200024a8    00001000     --HOLE--

.data      0    200034a8    00000b90     UNINITIALIZED
                  200034a8    00000114     drivers_cc13x0.aem3 : PINCC26XX.oem3 (.data:$O1$$)
                  200035bc    00000114                         : PowerCC26XX.oem3 (.data:PowerCC26XX_module)
                  200036d0    00000068     smartrf_settings_predefined.obj (.data:pOverrides_sl_lr)
                  20003738    00000060     smartrf_settings_predefined.obj (.data:pOverrides_hsm)
                  20003798    0000005c     smartrf_settings_predefined.obj (.data:pOverrides_lrm)
                  200037f4    0000005c     smartrf_settings_predefined.obj (.data:pOverrides_ook)
                  20003850    00000058     smartrf_settings.obj (.data:pOverrides)
                  200038a8    00000058     smartrf_settings_predefined.obj (.data:pOverrides_fsk)
                  20003900    00000054     urfc.obj (.data:ubRfRegOverride)
                  20003954    0000004c     release_pem3.oem3 (.data:ti_sysbios_knl_Task_Object__table__V)
                  200039a0    00000048     release_pem3.oem3 (.data:ti_sysbios_family_arm_cc26xx_Timer_Object__table__V)
                  200039e8    00000044     smartrf_settings_predefined.obj (.data)
                  20003a2c    00000038     BleAdv.obj (.data:eddystoneURLEncoding)
                  20003a64    00000038     release_pem3.oem3 (.data:ti_sysbios_gates_GateMutex_Object__table__V)
                  20003a9c    00000030     smartrf_settings_predefined.obj (.data:RF_cmdPropRxAdv_preDef)
                  20003acc    00000030     release_pem3.oem3 (.data:ti_sysbios_knl_Swi_Module_State_0_readyQ__A)
                  20003afc    00000030     release_pem3.oem3 (.data:ti_sysbios_knl_Swi_Object__table__V)
                  20003b2c    00000030     release_pem3.oem3 (.data:ti_sysbios_knl_Task_Module_State_0_readyQ__A)
                  20003b5c    00000028     smartrf_settings.obj (.data:RF_cmdPropRadioDivSetup)
                  20003b84    00000028     smartrf_settings_predefined.obj (.data:RF_cmdPropRadioDivSetup_fsk)
                  20003bac    00000028     smartrf_settings_predefined.obj (.data:RF_cmdPropRadioDivSetup_lrm)
                  20003bd4    00000028     smartrf_settings_predefined.obj (.data:RF_cmdPropRadioDivSetup_ook)
                  20003bfc    00000028     smartrf_settings_predefined.obj (.data:RF_cmdPropRadioDivSetup_sl_lr)
                  20003c24    00000028     urfi.obj (.data:urSetup)
                  20003c4c    00000026     uble.obj (.data:ubParams)
                  20003c72    00000002     BleAdv.obj (.data)
                  20003c74    00000024     smartrf_settings_predefined.obj (.data:RF_cmdRxHS)
                  20003c98    00000020     lcd.aem3 : SharpGrLib.oem3 (.data:$O1$$)
                  20003cb8    00000020     release_pem3.oem3 (.data:ti_sysbios_knl_Clock_Object__table__V)
                  20003cd8    00000020     urfi.obj (.data:urAdvParams)
                  20003cf8    00000020     release_pem3.oem3 (.data:xdc_runtime_Error_IgnoreBlock)
                  20003d18    0000001f     BleAdv.obj (.data:tlmAdvData)
                  20003d37    0000001f     BleAdv.obj (.data:uidAdvData)
                  20003d56    0000001f     BleAdv.obj (.data:urlAdvData)
                  20003d75    00000001     NodeRadioTask.obj (.data)
                  20003d76    00000002     release_pem3.oem3 (.data:ti_sysbios_family_arm_m3_Hwi_Module_State_0_excActive__A)
                  20003d78    0000001c     EasyLink.obj (.data:txTestCmd$4)
                  20003d94    00000018     smartrf_settings.obj (.data:RF_cmdFs)
                  20003dac    00000018     smartrf_settings_predefined.obj (.data:RF_cmdFs_preDef)
                  20003dc4    00000018     smartrf_settings.obj (.data:RF_cmdPropTx)
                  20003ddc    00000018     smartrf_settings_predefined.obj (.data:RF_cmdPropTx_preDef)
                  20003df4    00000018     smartrf_settings_predefined.obj (.data:RF_cmdRadioSetup_hsm)
                  20003e0c    00000018     EasyLink.obj (.data:addrFilterTable)
                  20003e24    00000018     smartrf_settings_predefined.obj (.data:shapeovr)
                  20003e3c    00000018     release_pem3.oem3 (.data:ti_sysbios_family_arm_m3_Hwi_Object__table__V)
                  20003e54    00000018     release_pem3.oem3 (.data:ti_sysbios_heaps_HeapMem_Object__table__V)
                  20003e6c    00000014     smartrf_settings_predefined.obj (.data:RF_cmdTxHS)
                  20003e80    00000014     NodeTask.obj (.data:urls)
                  20003e94    00000012     BleAdv.obj (.data:defaultUrl)
                  20003ea6    00000001     drivers_cc13x0.aem3 : SPI.oem3 (.data)
                  20003ea7    00000001                         : UART.oem3 (.data)
                  20003ea8    00000010     smartrf_settings.obj (.data:RF_prop)
                  20003eb8    00000010     smartrf_settings_predefined.obj (.data:RF_prop_fsk)
                  20003ec8    00000010     smartrf_settings_predefined.obj (.data:RF_prop_hsm)
                  20003ed8    00000010     smartrf_settings_predefined.obj (.data:RF_prop_lrm)
                  20003ee8    00000010     smartrf_settings_predefined.obj (.data:RF_prop_ook)
                  20003ef8    00000010     smartrf_settings_predefined.obj (.data:RF_prop_sl_lr)
                  20003f08    00000010     BleAdv.obj (.data:blePinTable)
                  20003f18    00000010     BleAdv.obj (.data:eddystoneURLPrefix)
                  20003f28    0000000f     EasyLink.obj (.data)
                  20003f37    00000001     --HOLE--
                  20003f38    0000000d     ull.obj (.data)
                  20003f45    00000003     --HOLE--
                  20003f48    0000000c     BleAdv.obj (.data:advStats)
                  20003f54    0000000c     NodeTask.obj (.data:bleAdvStats)
                  20003f60    0000000c     NodeTask.obj (.data:buttonPinTable)
                  20003f6c    0000000c     uble.obj (.data)
                  20003f78    0000000c     ugap.obj (.data)
                  20003f84    0000000a     NodeTask.obj (.data)
                  20003f8e    0000000a     BleAdv.obj (.data:propAdvertisement)
                  20003f98    0000000a     BleAdv.obj (.data:uidNameSpace)
                  20003fa2    00000002     --HOLE--
                  20003fa4    00000008     rtsv7M3_T_le_eabi.lib : _lock.obj (.data:$O1$$)
                  20003fac    00000008     NodeTask.obj (.data:pinTable)
                  20003fb4    00000008     release_pem3.oem3 (.data:ti_sysbios_family_arm_m3_Hwi_Module__root__V)
                  20003fbc    00000008     release_pem3.oem3 (.data:ti_sysbios_gates_GateHwi_Module__root__V)
                  20003fc4    00000008     release_pem3.oem3 (.data:ti_sysbios_gates_GateMutex_Module__root__V)
                  20003fcc    00000008     release_pem3.oem3 (.data:ti_sysbios_hal_Hwi_Module__root__V)
                  20003fd4    00000008     release_pem3.oem3 (.data:ti_sysbios_heaps_HeapMem_Module__root__V)
                  20003fdc    00000008     release_pem3.oem3 (.data:ti_sysbios_knl_Clock_Module__root__V)
                  20003fe4    00000008     release_pem3.oem3 (.data:ti_sysbios_knl_Event_Module__root__V)
                  20003fec    00000008     release_pem3.oem3 (.data:ti_sysbios_knl_Mailbox_Module__root__V)
                  20003ff4    00000008     release_pem3.oem3 (.data:ti_sysbios_knl_Queue_Module__root__V)
                  20003ffc    00000008     release_pem3.oem3 (.data:ti_sysbios_knl_Semaphore_Module__root__V)
                  20004004    00000008     release_pem3.oem3 (.data:ti_sysbios_knl_Swi_Module__root__V)
                  2000400c    00000008     release_pem3.oem3 (.data:ti_sysbios_knl_Task_Module__root__V)
                  20004014    00000008     release_pem3.oem3 (.data:xdc_runtime_System_Module_State_0_atexitHandlers__A)
                  2000401c    00000006     urfi.obj (.data)
                  20004022    00000002     --HOLE--
                  20004024    00000004     rtsv7M3_T_le_eabi.lib : rand.obj (.data)
                  20004028    00000004                           : stkdepth_vars.obj (.data)
                  2000402c    00000004     release_pem3.oem3 (.data:ti_sysbios_family_arm_m3_Hwi_Module_State_0_excContext__A)
                  20004030    00000004     release_pem3.oem3 (.data:ti_sysbios_family_arm_m3_Hwi_Module_State_0_excStack__A)
                  20004034    00000004     release_pem3.oem3 (.data:ti_sysbios_knl_Task_Module_State_0_idleTask__A)

.stack     0    20004c00    00000400     UNINITIALIZED
                  20004c00    00000400     --HOLE--

.bootVecs 
*          0    00000000    00000008     DSECT
                  00000000    00000008     boot.aem3 : boot.oem3 (.bootVecs)

xdc.meta   0    00000000    00000106     COPY SECTION
                  00000000    00000106     release_pem3.oem3 (xdc.meta)

xdc.noload 
*          0    00000000    00000000     COPY SECTION

MODULE SUMMARY

       Module                            code    ro data   rw data
       ------                            ----    -------   -------
    .\
       NodeRadioTask.obj                 2812    0         1493   
       NodeTask.obj                      1942    134       1426   
       CC1350_LAUNCHXL.obj               24      305       2204   
       ccfg.obj                          0       88        0      
       SceAdc.obj                        36      0         0      
       rfWsnNode.obj                     26      0         0      
    +--+---------------------------------+-------+---------+---------+
       Total:                            4840    527       5123   
                                                                  
    .\ble_adv\
       BleAdv.obj                        1844    126       313    
       urfc.obj                          454     1589      84     
       ull.obj                           1758    0         93     
       urfi.obj                          788     0         378    
       uble.obj                          934     36        74     
       ugap.obj                          950     0         62     
    +--+---------------------------------+-------+---------+---------+
       Total:                            6728    1751      1004   
                                                                  
    .\easylink\
       EasyLink.obj                      3246    12        963    
    +--+---------------------------------+-------+---------+---------+
       Total:                            3246    12        963    
                                                                  
    .\sce\
       scif_framework.obj                112     0         36     
    +--+---------------------------------+-------+---------+---------+
       Total:                            112     0         36     
                                                                  
    .\smartrf_settings\
       smartrf_settings_predefined.obj   2728    14768     980    
       smartrf_settings.obj              446     2404      192    
    +--+---------------------------------+-------+---------+---------+
       Total:                            3174    17172     1172   
                                                                  
    C:\git\UofACapstone18_grp1_git\tirtos_builds_CC1350_LAUNCHXL_release_ccs\Debug\configPkg\package\cfg\
       release_pem3.oem3                 904     1551      1750   
    +--+---------------------------------+-------+---------+---------+
       Total:                            904     1551      1750   
                                                                  
    C:/ti/simplelink_cc13x0_sdk_1_50_00_08/kernel/tirtos/packages/ti/dpl/lib/dpl_cc13x0.aem3
       PowerCC26XX_tirtos.oem3           296     0         8      
       SemaphoreP_tirtos.oem3            192     0         0      
       ClockP_tirtos.oem3                138     0         4      
       HwiP_tirtos.oem3                  102     0         0      
       SwiP_tirtos.oem3                  100     0         0      
       SystemP_tirtos.oem3               4       0         0      
    +--+---------------------------------+-------+---------+---------+
       Total:                            832     0         12     
                                                                  
    C:/ti/simplelink_cc13x0_sdk_1_50_00_08/source/ti/devices/cc13x0/driverlib/bin/ccs/driverlib.lib
       setup_rom.obj                     1468    0         0      
       sys_ctrl.obj                      760     0         8      
       rfc.obj                           668     24        0      
       osc.obj                           388     0         20     
       setup.obj                         364     0         0      
       chipinfo.obj                      182     0         0      
       aon_rtc.obj                       44      0         0      
       ddi.obj                           44      0         0      
       adi.obj                           40      0         0      
       aon_batmon.obj                    40      0         0      
       cpu.obj                           30      0         0      
       vims.obj                          14      0         0      
       driverlib_release.obj             0       0         1      
    +--+---------------------------------+-------+---------+---------+
       Total:                            4042    24        29     
                                                                  
    C:/ti/simplelink_cc13x0_sdk_1_50_00_08/source/ti/display/lib/display.aem3
       DisplaySharp.oem3                 902     32        0      
       DisplayUart.oem3                  184     32        0      
       Display.oem3                      192     1         0      
    +--+---------------------------------+-------+---------+---------+
       Total:                            1278    65        0      
                                                                  
    C:/ti/simplelink_cc13x0_sdk_1_50_00_08/source/ti/drivers/lib/drivers_cc13x0.aem3
       UARTCC26XX.oem3                   2610    104       2      
       SPICC26XXDMA.oem3                 2340    80        64     
       PowerCC26XX.oem3                  2124    76        276    
       PINCC26XX.oem3                    1586    0         276    
       PowerCC26XX_calibrateRCOSC.oem3   1380    0         0      
       UART.oem3                         182     36        1      
       SPI.oem3                          168     32        1      
       UDMACC26XX.oem3                   156     0         0      
       RingBuf.oem3                      148     0         0      
       List.oem3                         76      0         0      
    +--+---------------------------------+-------+---------+---------+
       Total:                            10770   328       620    
                                                                  
    C:/ti/simplelink_cc13x0_sdk_1_50_00_08/source/ti/drivers/rf/lib/rf_multiMode_cc13x0.aem3
       RFCC26XX_multiMode.oem3           8102    28        786    
    +--+---------------------------------+-------+---------+---------+
       Total:                            8102    28        786    
                                                                  
    C:/ti/simplelink_cc13x0_sdk_1_50_00_08/source/ti/grlib/lib/grlib.aem3
       fontfixed6x8.oem3                 0       960       0      
       string.oem3                       746     0         0      
       rectangle.oem3                    132     0         0      
       context.oem3                      82      0         0      
       display.oem3                      76      0         0      
       line.oem3                         74      0         0      
    +--+---------------------------------+-------+---------+---------+
       Total:                            1110    960       0      
                                                                  
    C:/ti/simplelink_cc13x0_sdk_1_50_00_08/source/ti/mw/lcd/lib/lcd.aem3
       SharpGrLib.oem3                   1042    48        32     
    +--+---------------------------------+-------+---------+---------+
       Total:                            1042    48        32     
                                                                  
    C:\git\UofACapstone18_grp1_git\tirtos_builds_CC1350_LAUNCHXL_release_ccs\src\sysbios\rom_sysbios.aem3
       rom_sysbios.obj                   2529    0         0      
    +--+---------------------------------+-------+---------+---------+
       Total:                            2529    0         0      
                                                                  
    C:\ti\ccsv7\tools\compiler\ti-cgt-arm_16.9.7.LTS\lib\rtsv7M3_T_le_eabi.lib
       ull_div_t2.obj                    500     0         0      
       fd_add_t2.obj                     438     0         0      
       fd_cmp_t2.obj                     268     0         0      
       fd_mul_t2.obj                     252     0         0      
       memcpy_t2.obj                     156     0         0      
       memset_t2.obj                     122     0         0      
       copy_decompress_lzss.obj          104     0         0      
       rand.obj                          76      0         4      
       cpy_tbl.obj                       76      0         0      
       fd_toi_t2.obj                     72      0         0      
       fd_tou_t2.obj                     68      0         0      
       u_divt2.obj                       64      0         0      
       fs_tod_t2.obj                     56      0         0      
       strncpy.obj                       54      0         0      
       i_tofd_t2.obj                     46      0         0      
       strncmp.obj                       40      0         0      
       _lock.obj                         20      0         8      
       args_main.obj                     24      0         0      
       ll_mul_t2.obj                     24      0         0      
       strlen.obj                        20      0         0      
       copy_decompress_none.obj          14      0         0      
       copy_zero_init.obj                12      0         0      
       stkdepth_vars.obj                 0       0         4      
       i_div0.obj                        2       0         0      
    +--+---------------------------------+-------+---------+---------+
       Total:                            2508    0         16     
                                                                  
    C:\ti\simplelink_cc13x0_sdk_1_50_00_08\kernel\tirtos\packages\ti\targets\arm\rtsarm\lib\auto_init.aem3
       auto_init.oem3                    160     0         0      
    +--+---------------------------------+-------+---------+---------+
       Total:                            160     0         0      
                                                                  
    C:\ti\simplelink_cc13x0_sdk_1_50_00_08\kernel\tirtos\packages\ti\targets\arm\rtsarm\lib\boot.aem3
       boot.oem3                         68      0         0      
    +--+---------------------------------+-------+---------+---------+
       Total:                            68      0         0      
                                                                  
       Stack:                            0       0         1024   
       Linker Generated:                 544     1403      0      
    +--+---------------------------------+-------+---------+---------+
       Grand Total:                      51989   23869     12567  


LINKER GENERATED COPY TABLES

__TI_cinit_table @ 00012790 records: 16, size/record: 8, table size: 128
	.data: load addr=00012290, load size=00000404 bytes, run addr=200034a8, run size=00000b90 bytes, compression=lzss
	.data:ti_sysbios_family_arm_m3_Hwi_Module__state__V: load addr=00012694, load size=00000029 bytes, run addr=20000144, run size=00000034 bytes, compression=lzss
	.data:ti_sysbios_knl_Task_Module__state__V: load addr=000126bd, load size=00000021 bytes, run addr=20000100, run size=00000044 bytes, compression=lzss
	.data:ti_sysbios_BIOS_Module__state__V: load addr=000126de, load size=0000001f bytes, run addr=200001a4, run size=00000024 bytes, compression=lzss
	.data:ti_sysbios_knl_Clock_Module__state__V: load addr=000126fd, load size=0000001e bytes, run addr=20000178, run size=0000002c bytes, compression=lzss
	.data:ti_sysbios_knl_Swi_Module__state__V: load addr=0001271b, load size=00000010 bytes, run addr=200001c8, run size=0000001c bytes, compression=lzss
	.data:ti_sysbios_family_arm_cc26xx_Timer_Module__state__V: load addr=00012738, load size=0000000b bytes, run addr=200001e4, run size=00000008 bytes, compression=lzss
	.data:xdc_runtime_System_Module__state__V: load addr=00012743, load size=0000000b bytes, run addr=200001f8, run size=00000008 bytes, compression=lzss
	.TI.bound:dmaSpi0RxControlTableEntry: load addr=00012750, load size=00000008 bytes, run addr=20000430, run size=00000010 bytes, compression=zero_init
	.TI.bound:dmaSpi0TxControlTableEntry: load addr=00012758, load size=00000008 bytes, run addr=20000440, run size=00000010 bytes, compression=zero_init
	.TI.bound:dmaSpi1RxControlTableEntry: load addr=00012760, load size=00000008 bytes, run addr=20000500, run size=00000010 bytes, compression=zero_init
	.TI.bound:dmaSpi1TxControlTableEntry: load addr=00012768, load size=00000008 bytes, run addr=20000510, run size=00000010 bytes, compression=zero_init
	.bss: load addr=00012770, load size=00000008 bytes, run addr=20000520, run size=00001f83 bytes, compression=zero_init
	.data:xdc_runtime_Memory_Module__state__V: load addr=00012778, load size=00000008 bytes, run addr=20000200, run size=00000004 bytes, compression=lzss
	.data:ti_sysbios_family_arm_cc26xx_TimestampProvider_Module__state__V: load addr=00012780, load size=00000007 bytes, run addr=200001ec, run size=00000004 bytes, compression=lzss
	.data:xdc_runtime_Startup_Module__state__V: load addr=00012787, load size=00000007 bytes, run addr=200001f0, run size=00000008 bytes, compression=lzss


LINKER GENERATED HANDLER TABLE

__TI_handler_table @ 0001272c records: 3, size/record: 4, table size: 12
	index: 0, handler: __TI_decompress_lzss
	index: 1, handler: __TI_decompress_none
	index: 2, handler: __TI_zero_init


FAR CALL TRAMPOLINES

callee name               trampoline name
   callee addr  tramp addr   call addr  call info
--------------  -----------  ---------  ----------------
ti_sysbios_knl_Semaphore_post__E  $Tramp$TT$L$PI$$ti_sysbios_knl_Semaphore_post__E
   1001ac41     0000042c     000002b4   EasyLink.obj (.text:EasyLink_configure)
                             000003a4   EasyLink.obj (.text:EasyLink_configure)
                             000003b4   EasyLink.obj (.text:EasyLink_configure)
                             00003a82   EasyLink.obj (.text:rxDoneCallback)
                             000046bc   EasyLink.obj (.text:EasyLink_transmit)
                             0000644e   NodeRadioTask.obj (.text:NodeRadioTask_sendThermostatData)
                             00007234   EasyLink.obj (.text:EasyLink_enableRxAddrFilter)
                             0000bcbc   EasyLink.obj (.text:asyncCmdCallback)
                             0000c132   NodeRadioTask.obj (.text:returnRadioOperationStatus)
                             0000ce0c   dpl_cc13x0.aem3 : SemaphoreP_tirtos.oem3 (.text:SemaphoreP_post)
ti_sysbios_knl_Semaphore_create  $Tramp$TT$L$PI$$ti_sysbios_knl_Semaphore_create
   1001b5a9     00000434     0000038e   EasyLink.obj (.text:EasyLink_configure)
                             0000bc9c   dpl_cc13x0.aem3 : SemaphoreP_tirtos.oem3 (.text:SemaphoreP_createBinary)
ti_sysbios_family_arm_m3_Hwi_restoreFxn__E  $Tramp$TT$L$PI$$ti_sysbios_family_arm_m3_Hwi_restoreFxn__E
   1001c215     0000082c     00000602   rf_multiMode_cc13x0.aem3 : RFCC26XX_multiMode.oem3 (.text:fsmActiveState)
                             000006a2                            : RFCC26XX_multiMode.oem3 (.text:fsmActiveState)
                             0000076e                            : RFCC26XX_multiMode.oem3 (.text:fsmActiveState)
                             000007d4                            : RFCC26XX_multiMode.oem3 (.text:fsmActiveState)
                             000007f6                            : RFCC26XX_multiMode.oem3 (.text:fsmActiveState)
                             00001d20   ull.obj (.text:ull_advSchedule)
                             00001e30   drivers_cc13x0.aem3 : SPICC26XXDMA.oem3 (.text:SPICC26XXDMA_transfer)
                             00001e46                       : SPICC26XXDMA.oem3 (.text:SPICC26XXDMA_transfer)
                             00001e92                       : SPICC26XXDMA.oem3 (.text:SPICC26XXDMA_transfer)
                             00001f90                       : SPICC26XXDMA.oem3 (.text:SPICC26XXDMA_transfer)
                             00002fd4   rf_multiMode_cc13x0.aem3 : RFCC26XX_multiMode.oem3 (.text:RF_open)
                             000030d2                            : RFCC26XX_multiMode.oem3 (.text:RF_open)
                             00003f88                            : RFCC26XX_multiMode.oem3 (.text:RF_scheduleCmd)
                             00003ff6                            : RFCC26XX_multiMode.oem3 (.text:RF_scheduleCmd)
                             00004032                            : RFCC26XX_multiMode.oem3 (.text:RF_scheduleCmd)
                             0000405c                            : RFCC26XX_multiMode.oem3 (.text:RF_scheduleCmd)
                             0000407a                            : RFCC26XX_multiMode.oem3 (.text:RF_scheduleCmd)
                             000040b4                            : RFCC26XX_multiMode.oem3 (.text:RF_scheduleCmd)
                             00004cc6   drivers_cc13x0.aem3 : UARTCC26XX.oem3 (.text:UARTCC26XX_open)
                             00004cd2                       : UARTCC26XX.oem3 (.text:UARTCC26XX_open)
                             00004d5c                       : UARTCC26XX.oem3 (.text:UARTCC26XX_open)
                             0000502a   rf_multiMode_cc13x0.aem3 : RFCC26XX_multiMode.oem3 (.text:radioOpDoneCb)
                             00005e44   drivers_cc13x0.aem3 : SPICC26XXDMA.oem3 (.text:SPICC26XXDMA_open)
                             00005e54                       : SPICC26XXDMA.oem3 (.text:SPICC26XXDMA_open)
                             00005eb2                       : SPICC26XXDMA.oem3 (.text:SPICC26XXDMA_open)
                             00005f88                       : UARTCC26XX.oem3 (.text:UARTCC26XX_read)
                             00005fc8                       : UARTCC26XX.oem3 (.text:UARTCC26XX_read)
                             00005fe4                       : UARTCC26XX.oem3 (.text:UARTCC26XX_read)
                             00006030                       : UARTCC26XX.oem3 (.text:UARTCC26XX_read)
                             00006624   rf_multiMode_cc13x0.aem3 : RFCC26XX_multiMode.oem3 (.text:RF_close)
                             00006684                            : RFCC26XX_multiMode.oem3 (.text:RF_close)
                             000066d6   drivers_cc13x0.aem3 : UARTCC26XX.oem3 (.text:UARTCC26XX_write)
                             000066f2                       : UARTCC26XX.oem3 (.text:UARTCC26XX_write)
                             00006790                       : UARTCC26XX.oem3 (.text:UARTCC26XX_write)
                             00006a98                       : SPICC26XXDMA.oem3 (.text:SPICC26XXDMA_transferCancel)
                             00006b0c                       : SPICC26XXDMA.oem3 (.text:SPICC26XXDMA_transferCancel)
                             00006b56                       : SPICC26XXDMA.oem3 (.text:SPICC26XXDMA_transferCancel)
                             00006fa4                       : PINCC26XX.oem3 (.text:PINCC26XX_setIoCfg)
                             0000709e   rf_multiMode_cc13x0.aem3 : RFCC26XX_multiMode.oem3 (.text:RF_getInfo)
                             00007680                            : RFCC26XX_multiMode.oem3 (.text:RF_control)
                             0000770c                            : RFCC26XX_multiMode.oem3 (.text:RF_postCmd)
                             00007744                            : RFCC26XX_multiMode.oem3 (.text:RF_postCmd)
                             00007be4                            : RFCC26XX_multiMode.oem3 (.text:abortCmd)
                             00007d5e   drivers_cc13x0.aem3 : PowerCC26XX.oem3 (.text:Power_releaseDependency)
                             00007f88                       : PowerCC26XX.oem3 (.text:Power_setDependency)
                             0000841a                       : PowerCC26XX.oem3 (.text:switchXOSCHFclockFunc)
                             00008678   rf_multiMode_cc13x0.aem3 : RFCC26XX_multiMode.oem3 (.text:RF_issueRadioFreeCb)
                             00008690                            : RFCC26XX_multiMode.oem3 (.text:RF_issueRadioFreeCb)
                             000086a8                            : RFCC26XX_multiMode.oem3 (.text:RF_issueRadioFreeCb)
                             000087a2                            : RFCC26XX_multiMode.oem3 (.text:swiFxnHw)
                             000087ce                            : RFCC26XX_multiMode.oem3 (.text:swiFxnHw)
                             00008d92   drivers_cc13x0.aem3 : UARTCC26XX.oem3 (.text:UARTCC26XX_close)
                             00008dc2                       : UARTCC26XX.oem3 (.text:UARTCC26XX_writeCancel)
                             00008dce                       : UARTCC26XX.oem3 (.text:UARTCC26XX_writeCancel)
                             00008e14                       : UARTCC26XX.oem3 (.text:UARTCC26XX_writeCancel)
                             00008e64                       : UARTCC26XX.oem3 (.text:writeFinishedDoCallback)
                             0000923a   rf_multiMode_cc13x0.aem3 : RFCC26XX_multiMode.oem3 (.text:RF_prepareRadio)
                             000094f2   uble.obj (.text:uble_buildAndPostEvt)
                             000094fc   uble.obj (.text:uble_buildAndPostEvt)
                             00009902   drivers_cc13x0.aem3 : PowerCC26XX_calibrateRCOSC.oem3 (.text:PowerCC26XX_initiateCalibration)
                             00009b88                       : UARTCC26XX.oem3 (.text:UARTCC26XX_readCancel)
                             00009b94                       : UARTCC26XX.oem3 (.text:UARTCC26XX_readCancel)
                             00009b9e                       : UARTCC26XX.oem3 (.text:UARTCC26XX_readCancel)
                             00009f90                       : UARTCC26XX.oem3 (.text:UARTCC26XX_control)
                             0000a3a6                       : UDMACC26XX.oem3 (.text:UDMACC26XX_open)
                             0000a524                       : SPICC26XXDMA.oem3 (.text:SPICC26XXDMA_close)
                             0000a6d6   rf_multiMode_cc13x0.aem3 : RFCC26XX_multiMode.oem3 (.text:ratChanFree)
                             0000a72a   drivers_cc13x0.aem3 : SPICC26XXDMA.oem3 (.text:SPICC26XXDMA_swiFxn)
                             0000a7ec   rf_multiMode_cc13x0.aem3 : RFCC26XX_multiMode.oem3 (.text:RF_getCurrentTime)
                             0000a81c                            : RFCC26XX_multiMode.oem3 (.text:RF_getCurrentTime)
                             0000abf6   drivers_cc13x0.aem3 : PINCC26XX.oem3 (.text:PIN_setOutputEnable)
                             0000ac46   rf_multiMode_cc13x0.aem3 : RFCC26XX_multiMode.oem3 (.text:Q_push)
                             0000acbe                            : RFCC26XX_multiMode.oem3 (.text:postDirImmCmd)
                             0000acd2                            : RFCC26XX_multiMode.oem3 (.text:postDirImmCmd)
                             0000ad56   uble.obj (.text:uble_processMsg)
                             0000ae32   rf_multiMode_cc13x0.aem3 : RFCC26XX_multiMode.oem3 (.text:RF_releasePowerConstraint)
                             0000ae56   drivers_cc13x0.aem3 : RingBuf.oem3 (.text:RingBuf_put)
                             0000ae80                       : RingBuf.oem3 (.text:RingBuf_put)
                             0000b046                       : SPI.oem3 (.text:SPI_init)
                             0000b106                       : UART.oem3 (.text:UART_init)
                             0000b282                       : RingBuf.oem3 (.text:RingBuf_get)
                             0000b28a                       : RingBuf.oem3 (.text:RingBuf_get)
                             0000b370                       : PowerCC26XX.oem3 (.text:PowerCC26XX_isStableXOSC_HF)
                             0000b506                       : UARTCC26XX.oem3 (.text:UARTCC26XX_swiIntFxn)
                             0000b630                       : UDMACC26XX.oem3 (.text:UDMACC26XX_close)
                             0000b762                       : PowerCC26XX.oem3 (.text:Power_releaseConstraint)
                             0000b798   rf_multiMode_cc13x0.aem3 : RFCC26XX_multiMode.oem3 (.text:Q_end)
                             0000b990   drivers_cc13x0.aem3 : PowerCC26XX.oem3 (.text:Power_setConstraint)
                             0000c05a                       : List.oem3 (.text:List_put)
                             0000c0f4                       : PowerCC26XX.oem3 (.text:Power_unregisterNotify)
                             0000c318   rf_multiMode_cc13x0.aem3 : RFCC26XX_multiMode.oem3 (.text:RF_setPowerConstraint)
                             0000c61c                            : RFCC26XX_multiMode.oem3 (.text:Q_pop)
xdc_runtime_System_abort__E  $Tramp$TT$L$PI$$xdc_runtime_System_abort__E
   1001c745     00000bf4     00000a7a   NodeRadioTask.obj (.text:sendDmPacket)
                             00000a96   NodeRadioTask.obj (.text:sendDmPacket)
                             0000182c   NodeRadioTask.obj (.text:nodeRadioTaskFunction)
                             00001872   NodeRadioTask.obj (.text:nodeRadioTaskFunction)
                             0000243a   NodeTask.obj (.text:nodeTaskFunction)
                             000024bc   NodeTask.obj (.text:nodeTaskFunction)
                             000024ce   NodeTask.obj (.text:nodeTaskFunction)
                             0000391c   BleAdv.obj (.text:BleAdv_init)
                             000090e4   NodeRadioTask.obj (.text:resendPacket)
                             00009100   NodeRadioTask.obj (.text:resendPacket)
ti_sysbios_knl_Swi_destruct  $Tramp$TT$L$PI$$ti_sysbios_knl_Swi_destruct
   1001c2e5     0000ce3c     0000ce10   dpl_cc13x0.aem3 : SwiP_tirtos.oem3 (.text:SwiP_destruct)
ti_sysbios_knl_Semaphore_destruct  $Tramp$TT$L$PI$$ti_sysbios_knl_Semaphore_destruct
   1001c2dd     0000ce44     0000ce08   dpl_cc13x0.aem3 : SemaphoreP_tirtos.oem3 (.text:SemaphoreP_destruct)
ti_sysbios_family_arm_m3_Hwi_setPriority__E  $Tramp$TT$L$PI$$ti_sysbios_family_arm_m3_Hwi_setPriority__E
   1001be81     0000ce4c     0000cdf0   dpl_cc13x0.aem3 : HwiP_tirtos.oem3 (.text:HwiP_setPriority)
ti_sysbios_family_arm_m3_Hwi_enableInterrupt__E  $Tramp$TT$L$PI$$ti_sysbios_family_arm_m3_Hwi_enableInterrupt__E
   1001b295     0000ce54     0000cde4   dpl_cc13x0.aem3 : HwiP_tirtos.oem3 (.text:HwiP_enableInterrupt)
ti_sysbios_family_arm_m3_Hwi_destruct  $Tramp$TT$L$PI$$ti_sysbios_family_arm_m3_Hwi_destruct
   1001c25d     0000ce5c     0000cddc   dpl_cc13x0.aem3 : HwiP_tirtos.oem3 (.text:HwiP_destruct)
ti_sysbios_BIOS_getCpuFreq__E  $Tramp$TT$L$PI$$ti_sysbios_BIOS_getCpuFreq__E
   1001bff5     0000ce64     0000cdc8   dpl_cc13x0.aem3 : ClockP_tirtos.oem3 (.text:ClockP_getCpuFreq)
ti_sysbios_knl_Clock_destruct  $Tramp$TT$L$PI$$ti_sysbios_knl_Clock_destruct
   1001c2b5     0000ce6c     0000cdc4   dpl_cc13x0.aem3 : ClockP_tirtos.oem3 (.text:ClockP_destruct)
xdc_runtime_Core_assignParams__I  $Tramp$TT$L$PI$$xdc_runtime_Core_assignParams__I
   1001c5ed     0000ce74     0000cc48   release_pem3.oem3 (.text:ti_sysbios_knl_Event_Params__init__S)
ti_sysbios_knl_Semaphore_delete  $Tramp$TT$L$PI$$ti_sysbios_knl_Semaphore_delete
   1001c2d9     0000ce7c     0000cbd2   dpl_cc13x0.aem3 : SemaphoreP_tirtos.oem3 (.text:SemaphoreP_delete)
xdc_runtime_Startup_startMods__I  $Tramp$TT$L$PI$$xdc_runtime_Startup_startMods__I
   1001c309     0000ce84     0000c9a8   release_pem3.oem3 (.text:xdc_runtime_Startup_exec__I)
ti_sysbios_knl_Clock_logTick__E  $Tramp$TT$L$PI$$ti_sysbios_knl_Clock_logTick__E
   1001be63     0000ce8c     0000c942   release_pem3.oem3 (.text:ti_sysbios_knl_Clock_doTick__I)
ti_sysbios_knl_Task_Params__init__S  $Tramp$TT$L$PI$$ti_sysbios_knl_Task_Params__init__S
   1001c1d5     0000ce94     0000c85c   NodeRadioTask.obj (.text:ti_sysbios_knl_Task_Params_init)
                             0000c872   NodeTask.obj (.text:ti_sysbios_knl_Task_Params_init)
ti_sysbios_knl_Swi_post__E  $Tramp$TT$L$PI$$ti_sysbios_knl_Swi_post__E
   1001b31d     0000ce9c     0000c6f8   rom_sysbios.aem3 : rom_sysbios.obj (.text:ti_sysbios_knl_Swi_or__E)
                             0000c94a   release_pem3.oem3 (.text:ti_sysbios_knl_Clock_doTick__I)
                             0000ce20   dpl_cc13x0.aem3 : SwiP_tirtos.oem3 (.text:SwiP_post)
ti_sysbios_BIOS_RtsGateProxy_leave__E  $Tramp$TT$L$PI$$ti_sysbios_BIOS_RtsGateProxy_leave__E
   1001c249     0000cea4     0000c6da   release_pem3.oem3 (.text:ti_sysbios_BIOS_rtsUnlock__I)
ti_sysbios_BIOS_start__E  $Tramp$TT$L$PI$$ti_sysbios_BIOS_start__E
   1001c051     0000ceac     0000c482   rfWsnNode.obj (.text:main)
xdc_runtime_Memory_free__E  $Tramp$TT$L$PI$$xdc_runtime_Memory_free__E
   1001c7fd     0000ceb4     0000c46a   release_pem3.oem3 (.text:free)
ti_sysbios_knl_Swi_construct  $Tramp$TT$L$PI$$ti_sysbios_knl_Swi_construct
   1001b085     0000cebc     0000c426   rom_sysbios.aem3 : rom_sysbios.obj (.text:ti_sysbios_knl_Swi_construct2__E)
ti_sysbios_BIOS_RtsGateProxy_enter__E  $Tramp$TT$L$PI$$ti_sysbios_BIOS_RtsGateProxy_enter__E
   1001c245     0000cec4     0000c146   release_pem3.oem3 (.text:ti_sysbios_BIOS_rtsLock__I)
xdc_runtime_Core_constructObject__I  $Tramp$TT$L$PI$$xdc_runtime_Core_constructObject__I
   1001c635     0000cecc     0000bd42   release_pem3.oem3 (.text:ti_sysbios_knl_Event_construct)
xdc_runtime_Memory_alloc__E  $Tramp$TT$L$PI$$xdc_runtime_Memory_alloc__E
   1001c485     0000ced4     0000bb32   release_pem3.oem3 (.text:ti_sysbios_rts_gnu_MemAlloc_alloc)
ti_sysbios_knl_Task_startup__E  $Tramp$TT$L$PI$$ti_sysbios_knl_Task_startup__E
   1001c305     0000cedc     0000ba50   release_pem3.oem3 (.text:ti_sysbios_BIOS_startFunc__I)
ti_sysbios_knl_Swi_startup__E  $Tramp$TT$L$PI$$ti_sysbios_knl_Swi_startup__E
   1001c239     0000cee4     0000ba4c   release_pem3.oem3 (.text:ti_sysbios_BIOS_startFunc__I)
ti_sysbios_hal_Hwi_startup__E  $Tramp$TT$L$PI$$ti_sysbios_hal_Hwi_startup__E
   1001c289     0000ceec     0000ba48   release_pem3.oem3 (.text:ti_sysbios_BIOS_startFunc__I)
ti_sysbios_family_arm_cc26xx_Timer_startup__E  $Tramp$TT$L$PI$$ti_sysbios_family_arm_cc26xx_Timer_startup__E
   1001b791     0000cef4     0000ba44   release_pem3.oem3 (.text:ti_sysbios_BIOS_startFunc__I)
xdc_runtime_System_atexit__E  $Tramp$TT$L$PI$$xdc_runtime_System_atexit__E
   1001c67d     0000cefc     0000ba3c   release_pem3.oem3 (.text:ti_sysbios_BIOS_startFunc__I)
ti_sysbios_BIOS_setThreadType__E  $Tramp$TT$L$PI$$ti_sysbios_BIOS_setThreadType__E
   1001c041     0000cf04     0000ba08   release_pem3.oem3 (.text:ti_sysbios_BIOS_atExitFunc__I)
                             0000c7a6   release_pem3.oem3 (.text:ti_sysbios_BIOS_exitFunc__I)
ti_sysbios_knl_Queue_Object__get__S  $Tramp$TT$L$PI$$ti_sysbios_knl_Queue_Object__get__S
   1001bd65     0000cf0c     0000b82e   rom_sysbios.aem3 : rom_sysbios.obj (.text:ti_sysbios_knl_Swi_setPri__E)
ti_sysbios_knl_Semaphore_Params__init__S  $Tramp$TT$L$PI$$ti_sysbios_knl_Semaphore_Params__init__S
   1001c1bd     0000cf14     0000b48a   dpl_cc13x0.aem3 : SemaphoreP_tirtos.oem3 (.text:SemaphoreP_construct)
                             0000bc62                   : SemaphoreP_tirtos.oem3 (.text:SemaphoreP_constructBinary)
                             0000bc8c                   : SemaphoreP_tirtos.oem3 (.text:SemaphoreP_createBinary)
                             0000c830   EasyLink.obj (.text:ti_sysbios_knl_Semaphore_Params_init)
                             0000c846   NodeRadioTask.obj (.text:ti_sysbios_knl_Semaphore_Params_init)
ti_sysbios_family_arm_m3_Hwi_construct  $Tramp$TT$L$PI$$ti_sysbios_family_arm_m3_Hwi_construct
   1001af29     0000cf1c     0000b452   rom_sysbios.aem3 : rom_sysbios.obj (.text:ti_sysbios_family_arm_m3_Hwi_construct2__E)
ti_sysbios_knl_Swi_Params__init__S  $Tramp$TT$L$PI$$ti_sysbios_knl_Swi_Params__init__S
   1001c1c9     0000cf24     0000b39e   dpl_cc13x0.aem3 : SwiP_tirtos.oem3 (.text:SwiP_construct)
ti_sysbios_family_arm_m3_Hwi_Params__init__S  $Tramp$TT$L$PI$$ti_sysbios_family_arm_m3_Hwi_Params__init__S
   1001c139     0000cf2c     0000b234   dpl_cc13x0.aem3 : HwiP_tirtos.oem3 (.text:HwiP_construct)
xdc_runtime_System_exit__E  $Tramp$TT$L$PI$$xdc_runtime_System_exit__E
   1001c7cd     0000cf34     0000aef8   boot.aem3 : boot.oem3 (.text)
                             0000c7ac   release_pem3.oem3 (.text:ti_sysbios_BIOS_exitFunc__I)
ti_sysbios_knl_Queue_get__E  $Tramp$TT$L$PI$$ti_sysbios_knl_Queue_get__E
   1001bf0d     0000cf3c     0000ad30   uble.obj (.text:uble_processMsg)
ti_sysbios_knl_Clock_Params__init__S  $Tramp$TT$L$PI$$ti_sysbios_knl_Clock_Params__init__S
   1001c181     0000cf44     0000ab94   dpl_cc13x0.aem3 : ClockP_tirtos.oem3 (.text:ClockP_construct)
                             0000c7c2   NodeTask.obj (.text:ti_sysbios_knl_Clock_Params_init)
                             0000c7d8   ugap.obj (.text:ti_sysbios_knl_Clock_Params_init)
                             0000c7ee   ull.obj (.text:ti_sysbios_knl_Clock_Params_init)
ti_sysbios_heaps_HeapMem_restore__E  $Tramp$TT$L$PI$$ti_sysbios_heaps_HeapMem_restore__E
   1001c101     0000cf4c     0000a45c   rom_sysbios.aem3 : rom_sysbios.obj (.text:ti_sysbios_heaps_HeapMem_initPrimary__I)
ti_sysbios_heaps_HeapMem_Object__get__S  $Tramp$TT$L$PI$$ti_sysbios_heaps_HeapMem_Object__get__S
   1001b86d     0000cf54     0000a42c   rom_sysbios.aem3 : rom_sysbios.obj (.text:ti_sysbios_heaps_HeapMem_initPrimary__I)
ti_sysbios_knl_Task_unblockI__E  $Tramp$TT$L$PI$$ti_sysbios_knl_Task_unblockI__E
   1001b9a1     0000cf5c     00009850   rom_sysbios.aem3 : rom_sysbios.obj (.text:ti_sysbios_knl_Event_post__E)
                             0000bd7a                    : rom_sysbios.obj (.text:ti_sysbios_knl_Event_pendTimeout__I)
ti_sysbios_knl_Queue_remove__E  $Tramp$TT$L$PI$$ti_sysbios_knl_Queue_remove__E
   1001c11d     0000cf64     0000983c   rom_sysbios.aem3 : rom_sysbios.obj (.text:ti_sysbios_knl_Event_post__E)
                             0000bd6e                    : rom_sysbios.obj (.text:ti_sysbios_knl_Event_pendTimeout__I)
ti_sysbios_knl_Queue_head__E  $Tramp$TT$L$PI$$ti_sysbios_knl_Queue_head__E
   1001c2d1     0000cf6c     00009826   rom_sysbios.aem3 : rom_sysbios.obj (.text:ti_sysbios_knl_Event_post__E)
ti_sysbios_knl_Queue_empty__E  $Tramp$TT$L$PI$$ti_sysbios_knl_Queue_empty__E
   1001c10f     0000cf74     00009818   rom_sysbios.aem3 : rom_sysbios.obj (.text:ti_sysbios_knl_Event_post__E)
                             0000ad5e   uble.obj (.text:uble_processMsg)
ti_sysbios_knl_Queue_put__E  $Tramp$TT$L$PI$$ti_sysbios_knl_Queue_put__E
   1001bf29     0000cf7c     00009528   uble.obj (.text:uble_buildAndPostEvt)
ti_sysbios_knl_Queue_construct  $Tramp$TT$L$PI$$ti_sysbios_knl_Queue_construct
   1001b8f1     0000cf84     000091b8   uble.obj (.text:uble_stackInit)
                             0000c960   rom_sysbios.aem3 : rom_sysbios.obj (.text:ti_sysbios_knl_Event_Instance_init__E)
ti_sysbios_knl_Clock_scheduleNextTick__E  $Tramp$TT$L$PI$$ti_sysbios_knl_Clock_scheduleNextTick__E
   1001beb9     0000cf8c     00008998   rom_sysbios.aem3 : rom_sysbios.obj (.text:ti_sysbios_knl_Clock_workFuncDynamic__E)
ti_sysbios_knl_Clock_walkQueueDynamic__E  $Tramp$TT$L$PI$$ti_sysbios_knl_Clock_walkQueueDynamic__E
   1001a809     0000cf94     00008962   rom_sysbios.aem3 : rom_sysbios.obj (.text:ti_sysbios_knl_Clock_workFuncDynamic__E)
                             0000897c                    : rom_sysbios.obj (.text:ti_sysbios_knl_Clock_workFuncDynamic__E)
ti_sysbios_knl_Clock_TimerProxy_getCurrentTick__E  $Tramp$TT$L$PI$$ti_sysbios_knl_Clock_TimerProxy_getCurrentTick__E
   1001c091     0000cf9c     00008932   rom_sysbios.aem3 : rom_sysbios.obj (.text:ti_sysbios_knl_Clock_workFuncDynamic__E)
                             0000bd12                    : rom_sysbios.obj (.text:ti_sysbios_knl_Clock_getTicksUntilInterrupt__E)
ti_sysbios_knl_Clock_construct  $Tramp$TT$L$PI$$ti_sysbios_knl_Clock_construct
   1001b575     0000cfa4     0000846e   NodeTask.obj (.text:NodeTask_init)
                             000089f0   ull.obj (.text:ull_init)
                             00008a20   ull.obj (.text:ull_init)
                             00008c44   ugap.obj (.text:ugap_bcastInit)
                             0000aba4   dpl_cc13x0.aem3 : ClockP_tirtos.oem3 (.text:ClockP_construct)
ti_sysbios_knl_Task_construct  $Tramp$TT$L$PI$$ti_sysbios_knl_Task_construct
   1001b125     0000cfac     0000800e   NodeRadioTask.obj (.text:NodeRadioTask_init)
                             0000849e   NodeTask.obj (.text:NodeTask_init)
ti_sysbios_knl_Semaphore_construct  $Tramp$TT$L$PI$$ti_sysbios_knl_Semaphore_construct
   1001b705     0000cfb4     00007fb2   NodeRadioTask.obj (.text:NodeRadioTask_init)
                             00007fc6   NodeRadioTask.obj (.text:NodeRadioTask_init)
                             0000b4a4   dpl_cc13x0.aem3 : SemaphoreP_tirtos.oem3 (.text:SemaphoreP_construct)
                             0000bc72                   : SemaphoreP_tirtos.oem3 (.text:SemaphoreP_constructBinary)
ti_sysbios_knl_Clock_removeI__E  $Tramp$TT$L$PI$$ti_sysbios_knl_Clock_removeI__E
   1001c2b9     0000cfbc     00006c14   rom_sysbios.aem3 : rom_sysbios.obj (.text:ti_sysbios_knl_Event_pend__E)
                             00006c34                    : rom_sysbios.obj (.text:ti_sysbios_knl_Event_pend__E)
ti_sysbios_knl_Task_restore__E  $Tramp$TT$L$PI$$ti_sysbios_knl_Task_restore__E
   1001ba45     0000cfc4     00006c04   rom_sysbios.aem3 : rom_sysbios.obj (.text:ti_sysbios_knl_Event_pend__E)
                             0000985a                    : rom_sysbios.obj (.text:ti_sysbios_knl_Event_post__E)
                             0000c0d2   dpl_cc13x0.aem3 : PowerCC26XX_tirtos.oem3 (.text:PowerCC26XX_schedulerRestore)
ti_sysbios_knl_Clock_startI__E  $Tramp$TT$L$PI$$ti_sysbios_knl_Clock_startI__E
   1001a715     0000cfcc     00006bfa   rom_sysbios.aem3 : rom_sysbios.obj (.text:ti_sysbios_knl_Event_pend__E)
ti_sysbios_knl_Task_blockI__E  $Tramp$TT$L$PI$$ti_sysbios_knl_Task_blockI__E
   1001b611     0000cfd4     00006bea   rom_sysbios.aem3 : rom_sysbios.obj (.text:ti_sysbios_knl_Event_pend__E)
ti_sysbios_knl_Queue_enqueue__E  $Tramp$TT$L$PI$$ti_sysbios_knl_Queue_enqueue__E
   1001c1b1     0000cfdc     00006be4   rom_sysbios.aem3 : rom_sysbios.obj (.text:ti_sysbios_knl_Event_pend__E)
ti_sysbios_knl_Task_disable__E  $Tramp$TT$L$PI$$ti_sysbios_knl_Task_disable__E
   1001c0f1     0000cfe4     00006bd4   rom_sysbios.aem3 : rom_sysbios.obj (.text:ti_sysbios_knl_Event_pend__E)
                             0000981e                    : rom_sysbios.obj (.text:ti_sysbios_knl_Event_post__E)
                             0000ba02   release_pem3.oem3 (.text:ti_sysbios_BIOS_atExitFunc__I)
                             0000c0a2   dpl_cc13x0.aem3 : PowerCC26XX_tirtos.oem3 (.text:PowerCC26XX_schedulerDisable)
ti_sysbios_knl_Task_self__E  $Tramp$TT$L$PI$$ti_sysbios_knl_Task_self__E
   1001c1e1     0000cfec     00006ba8   rom_sysbios.aem3 : rom_sysbios.obj (.text:ti_sysbios_knl_Event_pend__E)
ti_sysbios_knl_Clock_addI__E  $Tramp$TT$L$PI$$ti_sysbios_knl_Clock_addI__E
   1001ba1d     0000cff4     00006b88   rom_sysbios.aem3 : rom_sysbios.obj (.text:ti_sysbios_knl_Event_pend__E)
ti_sysbios_knl_Swi_disable__E  $Tramp$TT$L$PI$$ti_sysbios_knl_Swi_disable__E
   1001c0d1     0000cffc     000055f0   ugap.obj (.text:ugb_changeState)
                             00008a5c   ull.obj (.text:ull_advDoneCb)
                             00009542   ull.obj (.text:ull_advStop)
                             0000aa08   ull.obj (.text:ull_advStart)
                             0000aa5a   urfi.obj (.text:urfi_clientEventCb)
                             0000ad76   ugap.obj (.text:ugb_advPostprocessCB)
                             0000b88a   ull.obj (.text:ull_clockHandler)
                             0000b9fe   release_pem3.oem3 (.text:ti_sysbios_BIOS_atExitFunc__I)
                             0000bf1e   ugap.obj (.text:ugb_advPrepareCB)
                             0000ce14   dpl_cc13x0.aem3 : SwiP_tirtos.oem3 (.text:SwiP_disable)
ti_sysbios_knl_Task_sleep__E  $Tramp$TT$L$PI$$ti_sysbios_knl_Task_sleep__E
   1001a9d9     0000d004     00004ad8   EasyLink.obj (.text:enableTestMode)
                             0000c898   dpl_cc13x0.aem3 : ClockP_tirtos.oem3 (.text:ClockP_usleep)
ti_sysbios_knl_Semaphore_pend__E  $Tramp$TT$L$PI$$ti_sysbios_knl_Semaphore_pend__E
   1001a001     0000d00c     00003566   EasyLink.obj (.text:EasyLink_receiveAsync)
                             000045a0   EasyLink.obj (.text:EasyLink_transmit)
                             00004a12   EasyLink.obj (.text:enableTestMode)
                             000063c0   NodeRadioTask.obj (.text:NodeRadioTask_sendThermostatData)
                             0000643e   NodeRadioTask.obj (.text:NodeRadioTask_sendThermostatData)
                             000071b0   EasyLink.obj (.text:EasyLink_enableRxAddrFilter)
                             00008cac   EasyLink.obj (.text:EasyLink_init_multimode)
                             0000c98e   dpl_cc13x0.aem3 : SemaphoreP_tirtos.oem3 (.text:SemaphoreP_pend)
ti_sysbios_knl_Swi_restore__E  $Tramp$TT$L$PI$$ti_sysbios_knl_Swi_restore__E
   1001b5dd     0000d014     00002d28   drivers_cc13x0.aem3 : PowerCC26XX.oem3 (.text:Power_sleep)
                             00005604   ugap.obj (.text:ugb_changeState)
                             00005700   ugap.obj (.text:ugb_changeState)
                             000069c4   rf_multiMode_cc13x0.aem3 : RFCC26XX_multiMode.oem3 (.text:RF_pendCmd)
                             000069f8                            : RFCC26XX_multiMode.oem3 (.text:RF_pendCmd)
                             00006a50                            : RFCC26XX_multiMode.oem3 (.text:RF_pendCmd)
                             00006a64                            : RFCC26XX_multiMode.oem3 (.text:RF_pendCmd)
                             00008acc   ull.obj (.text:ull_advDoneCb)
                             0000959e   ull.obj (.text:ull_advStop)
                             0000aa16   ull.obj (.text:ull_advStart)
                             0000aa3e   ull.obj (.text:ull_advStart)
                             0000aa8a   urfi.obj (.text:urfi_clientEventCb)
                             0000adae   ugap.obj (.text:ugb_advPostprocessCB)
                             0000b89e   ull.obj (.text:ull_clockHandler)
                             0000bf3a   ugap.obj (.text:ugb_advPrepareCB)
ti_sysbios_family_arm_m3_Hwi_disableFxn__E  $Tramp$TT$L$PI$$ti_sysbios_family_arm_m3_Hwi_disableFxn__E
   1001c145     0000d01c     00001cfc   ull.obj (.text:ull_advSchedule)
                             000094dc   uble.obj (.text:uble_buildAndPostEvt)
                             0000ad48   uble.obj (.text:uble_processMsg)
                             0000cde0   dpl_cc13x0.aem3 : HwiP_tirtos.oem3 (.text:HwiP_disable)
ti_sysbios_knl_Clock_start__E  $Tramp$TT$L$PI$$ti_sysbios_knl_Clock_start__E
   1001bfdf     0000d024     00001cf8   ull.obj (.text:ull_advSchedule)
                             00001dba   ull.obj (.text:ull_advSchedule)
                             0000567e   ugap.obj (.text:ugb_changeState)
                             000056b6   ugap.obj (.text:ugb_changeState)
                             00006ca8   dpl_cc13x0.aem3 : PowerCC26XX_tirtos.oem3 (.text:PowerCC26XX_standbyPolicy)
                             00007918   NodeTask.obj (.text:buttonCallback)
                             00007998   NodeTask.obj (.text:buttonCallback)
                             0000c192   rom_sysbios.aem3 : rom_sysbios.obj (.text:ti_sysbios_knl_Clock_stop__E)
                             0000cdd0   dpl_cc13x0.aem3 : ClockP_tirtos.oem3 (.text:ClockP_start)
ti_sysbios_knl_Clock_setTimeout__E  $Tramp$TT$L$PI$$ti_sysbios_knl_Clock_setTimeout__E
   1001c2bd     0000d02c     00001cf0   ull.obj (.text:ull_advSchedule)
                             00001db2   ull.obj (.text:ull_advSchedule)
                             00005676   ugap.obj (.text:ugb_changeState)
                             000056ae   ugap.obj (.text:ugb_changeState)
                             00006ca2   dpl_cc13x0.aem3 : PowerCC26XX_tirtos.oem3 (.text:PowerCC26XX_standbyPolicy)
                             0000cdcc                   : ClockP_tirtos.oem3 (.text:ClockP_setTimeout)
ti_sysbios_knl_Clock_getTicks__E  $Tramp$TT$L$PI$$ti_sysbios_knl_Clock_getTicks__E
   1001b6d5     0000d034     00001884   NodeRadioTask.obj (.text:nodeRadioTaskFunction)
                             000018ca   NodeRadioTask.obj (.text:nodeRadioTaskFunction)
                             00008b7c   NodeRadioTask.obj (.text:bleAdv_updateTlmCB)
                             0000bdc2   rom_sysbios.aem3 : rom_sysbios.obj (.text:ti_sysbios_knl_Clock_getTimeout__E)

[68 trampolines]
[260 trampoline calls]


GLOBAL SYMBOLS: SORTED ALPHABETICALLY BY Name 

address   name                                                                      
-------   ----                                                                      
0001222c  ADCBuf_count                                                              
0001222d  ADC_count                                                                 
0000c48d  BleAdv_Params_init                                                        
000038b1  BleAdv_init                                                               
0000b66d  BleAdv_setAdvertiserType                                                  
0000cb53  BleAdv_startAdvertising                                                   
0000cca5  BleAdv_stopAdvertising                                                    
00002d89  BleAdv_updateUrl                                                          
00011f44  BoardGpioInitTable                                                        
0000c4a5  CC1350_LAUNCHXL_initGeneral                                               
0000cd89  ClockP_Params_init                                                        
0000ab79  ClockP_construct                                                          
0000cdc5  ClockP_destruct                                                           
0000cdc9  ClockP_getCpuFreq                                                         
1001b6d5  ClockP_getSystemTicks                                                     
00001381  ClockP_getTimeout                                                         
0000c9b1  ClockP_isActive                                                           
0000cdcd  ClockP_setTimeout                                                         
0000cdd1  ClockP_start                                                              
0000cdd5  ClockP_stop                                                               
20002494  ClockP_tickPeriod                                                         
0000c88d  ClockP_usleep                                                             
20003f8a  DeviceFilter                                                              
0000bb47  DisplaySharp_clear                                                        
0000a8d1  DisplaySharp_clearLines                                                   
0000aa99  DisplaySharp_close                                                        
00000f39  DisplaySharp_control                                                      
00012010  DisplaySharp_fxnTable                                                     
0000cd29  DisplaySharp_getType                                                      
00001405  DisplaySharp_init                                                         
00005721  DisplaySharp_open                                                         
00007bfd  DisplaySharp_vprintf                                                      
000038af  DisplayUartMin_clear                                                      
000063a3  DisplayUartMin_clearLines                                                 
0000c745  DisplayUartMin_close                                                      
0000cd8f  DisplayUartMin_control                                                    
00012030  DisplayUartMin_fxnTable                                                   
0000cd95  DisplayUartMin_getType                                                    
00006e17  DisplayUartMin_init                                                       
0000aae3  DisplayUartMin_open                                                       
0000adb9  DisplayUartMin_vprintf                                                    
00012120  Display_config                                                            
0001222e  Display_count                                                             
00011d8e  Display_defaultParams                                                     
0000cb5f  Display_doClear                                                           
0000be05  Display_doInit                                                            
0000a24d  Display_doOpen                                                            
0000cd9b  Display_doParamsInit                                                      
0000bd85  Display_doPrintf                                                          
0000c4bd  EasyLink_Params_init                                                      
0000003d  EasyLink_configure                                                        
00007189  EasyLink_enableRxAddrFilter                                               
00008c91  EasyLink_init_multimode                                                   
00003541  EasyLink_receiveAsync                                                     
00007a7d  EasyLink_setCtrl                                                          
0000457d  EasyLink_transmit                                                         
0000ccaf  Graphics_clearDisplay                                                     
0000ccb9  Graphics_clearDisplayOnDisplay                                            
0000c75b  Graphics_drawHorizontalLineOnDisplay                                      
0000ab2d  Graphics_drawLineH                                                        
0000caf1  Graphics_drawPixelOnDisplay                                               
000020fd  Graphics_drawString                                                       
00009053  Graphics_fillRectangle                                                    
0000ccc3  Graphics_fillRectangleOnDisplay                                           
0000cda1  Graphics_flushBuffer                                                      
0000cccd  Graphics_flushOnDisplay                                                   
0000c01d  Graphics_initContext                                                      
0000caff  Graphics_setBackgroundColor                                               
0000cdd9  Graphics_setFont                                                          
0000cb0d  Graphics_setForegroundColor                                               
0000ccd7  Graphics_translateColorOnDisplay                                          
00001000  HEAPSIZE                                                                  
0000c9c1  HwiP_Params_init                                                          
0000b219  HwiP_construct                                                            
0000cddd  HwiP_destruct                                                             
0000cde1  HwiP_disable                                                              
0000cde5  HwiP_enableInterrupt                                                      
0000cde9  HwiP_post                                                                 
1001c215  HwiP_restore                                                              
0000cded  HwiP_setFunc                                                              
0000cdf1  HwiP_setPriority                                                          
0001222f  I2C_count                                                                 
0000cb79  List_empty                                                                
0000cdf5  List_head                                                                 
0000cdf9  List_next                                                                 
0000c03f  List_put                                                                  
0000c771  List_remove                                                               
0000be2d  NOROM_AONBatMonTemperatureGetDegC                                         
0000c8a1  NOROM_AONRTCCurrent64BitValueGet                                          
0000c4d5  NOROM_AONRTCCurrentCompareValueGet                                        
0000cb85  NOROM_CPUcpsid                                                            
0000cb91  NOROM_CPUcpsie                                                            
0000cda7  NOROM_CPUdelay                                                            
0000c27d  NOROM_ChipInfo_GetChipFamily                                              
0000b8dd  NOROM_ChipInfo_GetChipType                                                
0000b295  NOROM_ChipInfo_GetHwRevision                                              
0000c4ed  NOROM_ChipInfo_GetPackageType                                             
0000bb75  NOROM_DDI32RegWrite                                                       
0000bba1  NOROM_OSCClockSourceGet                                                   
00009eed  NOROM_OSCClockSourceSet                                                   
00009d5d  NOROM_OSCHF_AttemptToSwitchToXosc                                         
0000b6a1  NOROM_OSCHF_SwitchToRcOscTurnOffXosc                                      
0000c505  NOROM_OSCHF_TurnOnXosc                                                    
0000b2d1  NOROM_OSC_HPOSCRelativeFrequencyOffsetGet                                 
0000cb9d  NOROM_OSC_HPOSCRelativeFrequencyOffsetToRFCoreFormatConvert               
0000c061  NOROM_RFCAdi3VcoLdoVoltageMode                                            
0000bbcd  NOROM_RFCCPEPatchReset                                                    
0000c51d  NOROM_RFCCpeIntGetAndClear                                                
0000bf45  NOROM_RFCDoorbellSendTo                                                   
0000c535  NOROM_RFCHWIntGetAndClear                                                 
00006e19  NOROM_RFCOverrideUpdate                                                   
000074e9  NOROM_RFCRfTrimRead                                                       
0000c9d1  NOROM_RFCRfTrimSet                                                        
0000b30d  NOROM_RFCSynthPowerDown                                                   
000082f1  NOROM_SetupAfterColdResetWakeupFromShutDownCfg1                           
000068a1  NOROM_SetupAfterColdResetWakeupFromShutDownCfg2                           
00005859  NOROM_SetupAfterColdResetWakeupFromShutDownCfg3                           
0000c54d  NOROM_SetupGetTrimForAdcShModeEn                                          
0000c565  NOROM_SetupGetTrimForAdcShVbufEn                                          
000099b5  NOROM_SetupGetTrimForAmpcompCtrl                                          
0000c57d  NOROM_SetupGetTrimForAmpcompTh1                                           
0000c299  NOROM_SetupGetTrimForAmpcompTh2                                           
00009a1d  NOROM_SetupGetTrimForAnabypassValue1                                      
0000c595  NOROM_SetupGetTrimForDblrLoopFilterResetVoltage                           
0000bbf9  NOROM_SetupGetTrimForRadcExtCfg                                           
0000c5ad  NOROM_SetupGetTrimForRcOscLfIBiasTrim                                     
0000c2b5  NOROM_SetupGetTrimForRcOscLfRtuneCtuneTrim                                
0000c081  NOROM_SetupGetTrimForXoscHfCtl                                            
0000c9e1  NOROM_SetupGetTrimForXoscHfFastStart                                      
0000c9f1  NOROM_SetupGetTrimForXoscHfIbiastherm                                     
0000c5c5  NOROM_SetupGetTrimForXoscLfRegulatorAndCmirrwrRatio                       
0000b90d  NOROM_SetupSetAonRtcSubSecInc                                             
0000a791  NOROM_SetupSetCacheModeAccordingToCcfgSetting                             
00009631  NOROM_SetupSetVddrLevel                                                   
000080f9  NOROM_SetupTrimDevice                                                     
00009a85  NOROM_SysCtrlAdjustRechargeAfterPowerDown                                 
0000293d  NOROM_SysCtrlSetRechargeBeforePowerDown                                   
00009aed  NOROM_SysCtrl_DCDC_VoltageConditionalControl                              
0000c787  NOROM_ThisLibraryIsFor_CC13x0_HwRev20AndLater_HaltIfViolated              
0000cb1b  NOROM_VIMSModeGet                                                         
00012230  NVS_count                                                                 
00007fa1  NodeRadioTask_init                                                        
000063a5  NodeRadioTask_sendThermostatData                                          
0000b93d  NodeTask_advStatsCB                                                       
00008439  NodeTask_init                                                             
0000af99  PINCC26XX_getConfig                                                       
0000ca01  PINCC26XX_getPinCount                                                     
00012238  PINCC26XX_hwAttrs                                                         
0000bc25  PINCC26XX_setMux                                                          
00009dc1  PIN_add                                                                   
0000c241  PIN_close                                                                 
0000c5dd  PIN_getConfig                                                             
0000c8b5  PIN_getInputValue                                                         
0000c8c9  PIN_getOutputValue                                                        
00003385  PIN_init                                                                  
000087ed  PIN_open                                                                  
0000cba9  PIN_registerIntCb                                                         
0000a52d  PIN_remove                                                                
0000b6d5  PIN_setConfig                                                             
0000b709  PIN_setInterrupt                                                          
0000abc1  PIN_setOutputEnable                                                       
0000b4b1  PIN_setOutputValue                                                        
00012231  PWM_count                                                                 
0000a2a9  PowerCC26XX_RCOSC_clockFunc                                               
000014f1  PowerCC26XX_auxISR                                                        
0000a305  PowerCC26XX_calibrate                                                     
00012138  PowerCC26XX_config                                                        
00004265  PowerCC26XX_doCalibrate                                                   
000098dd  PowerCC26XX_initiateCalibration                                           
0000b349  PowerCC26XX_isStableXOSC_HF                                               
200035bc  PowerCC26XX_module                                                        
0000c0a1  PowerCC26XX_schedulerDisable                                              
0000c0c1  PowerCC26XX_schedulerRestore                                              
00006c51  PowerCC26XX_standbyPolicy                                                 
20002448  PowerCC26XX_swiKey                                                        
0000cdfd  PowerCC26XX_switchXOSC_HF                                                 
20002444  PowerCC26XX_taskKey                                                       
0000cbb5  Power_getConstraintMask                                                   
0000cbc1  Power_getDependencyCount                                                  
0000c25f  Power_getTransitionLatency                                                
0000c5f5  Power_idleFunc                                                            
00006069  Power_init                                                                
0000be55  Power_registerNotify                                                      
0000b73d  Power_releaseConstraint                                                   
00007cbd  Power_releaseDependency                                                   
0000b96d  Power_setConstraint                                                       
00007eed  Power_setDependency                                                       
00002b65  Power_sleep                                                               
0000c0e1  Power_unregisterNotify                                                    
0001225d  RFCC26XX_hwAttrs                                                          
0000c8dd  RF_Params_init                                                            
00007b3d  RF_cancelCmd                                                              
000065ad  RF_close                                                                  
20003d94  RF_cmdFs                                                                  
20003dac  RF_cmdFs_preDef                                                           
20003b5c  RF_cmdPropRadioDivSetup                                                   
20003b84  RF_cmdPropRadioDivSetup_fsk                                               
20003bac  RF_cmdPropRadioDivSetup_lrm                                               
20003bd4  RF_cmdPropRadioDivSetup_ook                                               
20003bfc  RF_cmdPropRadioDivSetup_sl_lr                                             
20003a9c  RF_cmdPropRxAdv_preDef                                                    
20003dc4  RF_cmdPropTx                                                              
20003ddc  RF_cmdPropTx_preDef                                                       
20003df4  RF_cmdRadioSetup_hsm                                                      
20003c74  RF_cmdRxHS                                                                
20003e6c  RF_cmdTxHS                                                                
000075bd  RF_control                                                                
0000cd31  RF_flushCmd                                                               
0000a7e1  RF_getCurrentTime                                                         
00006fd1  RF_getInfo                                                                
00002f95  RF_open                                                                   
20003a20  RF_pCmdFs_preDef                                                          
20003a00  RF_pCmdPropRadioDivSetup_fsk                                              
20003a04  RF_pCmdPropRadioDivSetup_lrm                                              
20003a08  RF_pCmdPropRadioDivSetup_ook                                              
20003a10  RF_pCmdPropRadioDivSetup_sl_lr                                            
20003a14  RF_pCmdPropRadioSetup_2_4G_fsk                                            
20003a28  RF_pCmdPropRxAdv_preDef                                                   
20003a24  RF_pCmdPropTx_preDef                                                      
20003a0c  RF_pCmdRadioSetup_hsm                                                     
20003a1c  RF_pCmdRxHS                                                               
20003a18  RF_pCmdTxHS                                                               
200039fc  RF_pProp_2_4G_fsk                                                         
200039e8  RF_pProp_fsk                                                              
200039f4  RF_pProp_hsm                                                              
200039ec  RF_pProp_lrm                                                              
200039f0  RF_pProp_ook                                                              
200039f8  RF_pProp_sl_lr                                                            
00006991  RF_pendCmd                                                                
00007691  RF_postCmd                                                                
20003ea8  RF_prop                                                                   
20003eb8  RF_prop_fsk                                                               
20003ec8  RF_prop_hsm                                                               
20003ed8  RF_prop_lrm                                                               
20003ee8  RF_prop_ook                                                               
20003ef8  RF_prop_sl_lr                                                             
0000ae01  RF_releasePowerConstraint                                                 
0000b99d  RF_runCmd                                                                 
0000ce05  RF_runImmediateCmd                                                        
00003f3d  RF_scheduleCmd                                                            
0000c309  RF_setPowerConstraint                                                     
0000aecd  ResetISR                                                                  
0000c97b  RingBuf_construct                                                         
0000b257  RingBuf_get                                                               
0000ae45  RingBuf_put                                                               
20001f34  Room                                                                      
20003f88  RoomActiveAddress                                                         
20003f89  RoomFilter                                                                
UNDEFED   SHT$$INIT_ARRAY$$Base                                                     
UNDEFED   SHT$$INIT_ARRAY$$Limit                                                    
0000a4d1  SPICC26XXDMA_close                                                        
00008ae1  SPICC26XXDMA_control                                                      
00012150  SPICC26XXDMA_fxnTable                                                     
0000cb29  SPICC26XXDMA_init                                                         
00005e29  SPICC26XXDMA_open                                                         
00001e09  SPICC26XXDMA_transfer                                                     
00006a81  SPICC26XXDMA_transferCancel                                               
0000c8f1  SPI_Params_init                                                           
0000cce1  SPI_close                                                                 
00012168  SPI_config                                                                
00012232  SPI_count                                                                 
00012050  SPI_defaultParams                                                         
0000b019  SPI_init                                                                  
0000b059  SPI_open                                                                  
0000cceb  SPI_transfer                                                              
0000bea5  SafeHapiVoid                                                              
0000bf69  SceAdc_setReportInterval                                                  
0000cd41  SemaphoreP_Params_init                                                    
0000b475  SemaphoreP_construct                                                      
0000bc51  SemaphoreP_constructBinary                                                
0000bc7d  SemaphoreP_createBinary                                                   
0000cbcd  SemaphoreP_delete                                                         
0000ce09  SemaphoreP_destruct                                                       
0000c98d  SemaphoreP_pend                                                           
0000ce0d  SemaphoreP_post                                                           
20003f8c  SensorFilter                                                              
0000c625  SharpGrLib_init                                                           
20003f8b  SpecificRoomFilter                                                        
0000ca11  SwiP_Params_init                                                          
0000b385  SwiP_construct                                                            
0000ce11  SwiP_destruct                                                             
0000ce15  SwiP_disable                                                              
0000ce19  SwiP_getTrigger                                                           
0000ce1d  SwiP_or                                                                   
0000ce21  SwiP_post                                                                 
1001b5dd  SwiP_restore                                                              
0000ce25  SwiP_setPriority                                                          
0000ce29  SystemP_vsnprintf                                                         
00008d1d  UARTCC26XX_close                                                          
00009f4d  UARTCC26XX_control                                                        
00011f78  UARTCC26XX_fxnTable                                                       
00006291  UARTCC26XX_hwiIntFxn                                                      
0000c63d  UARTCC26XX_init                                                           
00004cb1  UARTCC26XX_open                                                           
00005f4d  UARTCC26XX_read                                                           
00009b55  UARTCC26XX_readCancel                                                     
0000cdad  UARTCC26XX_readPolling                                                    
0000b4e9  UARTCC26XX_swiIntFxn                                                      
000066a9  UARTCC26XX_write                                                          
00008da9  UARTCC26XX_writeCancel                                                    
0000cdb3  UARTCC26XX_writePolling                                                   
0000c655  UART_Params_init                                                          
0000ccff  UART_close                                                                
00012214  UART_config                                                               
0000cd09  UART_control                                                              
00012233  UART_count                                                                
00011fc8  UART_defaultParams                                                        
0000b0d9  UART_init                                                                 
0000b119  UART_open                                                                 
0000cd13  UART_write                                                                
0000b601  UDMACC26XX_close                                                          
00012240  UDMACC26XX_config                                                         
0000cd1d  UDMACC26XX_hwiIntFxn                                                      
0000a361  UDMACC26XX_open                                                           
20003f8d  VentFilter                                                                
00012234  Watchdog_count                                                            
00000000  __ASM__                                                                   
00000080  __ISA__                                                                   
00000092  __PLAT__                                                                  
20005000  __STACK_END                                                               
00000400  __STACK_SIZE                                                              
000000b9  __TARG__                                                                  
00012790  __TI_CINIT_Base                                                           
00012810  __TI_CINIT_Limit                                                          
0001272c  __TI_Handler_Table_Base                                                   
00012738  __TI_Handler_Table_Limit                                                  
00008579  __TI_auto_init                                                            
00009bbd  __TI_decompress_lzss                                                      
0000cb37  __TI_decompress_none                                                      
ffffffff  __TI_pprof_out_hndl                                                       
ffffffff  __TI_prof_data_size                                                       
ffffffff  __TI_prof_data_start                                                      
00012290  __TI_static_base__                                                        
0000cbfd  __TI_zero_init                                                            
000000de  __TRDR__                                                                  
00008ec1  __aeabi_cdcmpeq                                                           
00008ec1  __aeabi_cdcmple                                                           
00008f47  __aeabi_cdrcmple                                                          
0000ace1  __aeabi_d2iz                                                              
0000af55  __aeabi_d2uiz                                                             
00003703  __aeabi_dadd                                                              
000067a5  __aeabi_dmul                                                              
000036f9  __aeabi_dsub                                                              
0000b559  __aeabi_f2d                                                               
0000baeb  __aeabi_i2d                                                               
0000adff  __aeabi_idiv0                                                             
0000c69d  __aeabi_lmul                                                              
0000935d  __aeabi_memclr                                                            
0000935d  __aeabi_memclr4                                                           
0000935d  __aeabi_memclr8                                                           
000086b5  __aeabi_memcpy                                                            
000086b5  __aeabi_memcpy4                                                           
000086b5  __aeabi_memcpy8                                                           
0000935f  __aeabi_memset                                                            
0000935f  __aeabi_memset4                                                           
0000935f  __aeabi_memset8                                                           
0000b199  __aeabi_uidiv                                                             
0000b199  __aeabi_uidivmod                                                          
00003191  __aeabi_uldivmod                                                          
ffffffff  __binit__                                                                 
ffffffff  __c_args__                                                                
0001ffa8  __ccfg                                                                    
200034a8  __primary_heap_end__                                                      
200024a8  __primary_heap_start__                                                    
20004c00  __stack                                                                   
0000c685  _args_main                                                                
0000aecd  _c_int00                                                                  
20003fa4  _lock                                                                     
0000c927  _nop                                                                      
0000c91f  _register_lock                                                            
0000c919  _register_unlock                                                          
20003fa8  _unlock                                                                   
ffffffff  binit                                                                     
20002498  blePinHandle                                                              
20003f08  blePinTable                                                               
20003f60  buttonPinTable                                                            
20002214  cBcastDuty                                                                
0000a969  copy_in                                                                   
20003e94  defaultUrl                                                                
000121e8  displaySharpHWattrs                                                       
20001ec8  displaySharpObject                                                        
000121b0  displayUartHWAttrs                                                        
20002438  displayUartObject                                                         
200024a2  driverlib_release_0_49471                                                 
20002238  fastReportTimeoutClock                                                    
0000c457  free                                                                      
00011c40  g_sFontFixed6x8                                                           
00012070  g_sharpFxns                                                               
00009451  getBleIeeeAddr                                                            
20003f7c  hcBcastDuty                                                               
0000c471  main                                                                      
20004028  main_func_sp                                                              
0000bb19  malloc                                                                    
000086b5  memcpy                                                                    
00009365  memset                                                                    
20003f87  n                                                                         
200023b8  nodeEvent                                                                 
20001f90  nodeRadioTask                                                             
0000cc09  nodeRadioTask_getNodeAddr                                                 
20001fe0  nodeTask                                                                  
200038a8  pOverrides_fsk                                                            
20003738  pOverrides_hsm                                                            
20003798  pOverrides_lrm                                                            
200037f4  pOverrides_ook                                                            
200036d0  pOverrides_sl_lr                                                          
20003540  pinHandleTable                                                            
200034ac  pinLowerBound                                                             
20003fac  pinTable                                                                  
200034a8  pinUpperBound                                                             
2000246c  propAdvFrame                                                              
2000230c  radioAccessSem                                                            
200023cc  radioOperationEvent                                                       
20002328  radioResultSem                                                            
0000a9cb  rand                                                                      
00011df6  resourceDB                                                                
0000becd  rfSwitchCallback                                                          
20003f6c  rfTimeCrit                                                                
0000978d  scifGetTaskStruct                                                         
20003e24  shapeovr                                                                  
00011ecc  spiCC26XXDMAHWAttrs                                                       
200016b0  spiCC26XXDMAObjects                                                       
0000a9b5  srand                                                                     
0000c92d  strlen                                                                    
0000bef5  strncmp                                                                   
0000b637  strncpy                                                                   
200001a4  ti_sysbios_BIOS_Module__state__V                                          
1001bc25  ti_sysbios_BIOS_RtsGateProxy_Handle__label__S                             
1001bc25  ti_sysbios_BIOS_RtsGateProxy_Handle__label__S__mangled__                  
1001bab5  ti_sysbios_BIOS_RtsGateProxy_Object__delete__S                            
1001c175  ti_sysbios_BIOS_RtsGateProxy_Params__init__S                              
1001c175  ti_sysbios_BIOS_RtsGateProxy_Params__init__S__mangled__                   
1001c245  ti_sysbios_BIOS_RtsGateProxy_enter__E                                     
1001c249  ti_sysbios_BIOS_RtsGateProxy_leave__E                                     
1001c271  ti_sysbios_BIOS_RtsGateProxy_query__E                                     
1001c271  ti_sysbios_BIOS_RtsGateProxy_query__E__mangled__                          
0000b9fd  ti_sysbios_BIOS_atExitFunc__I                                             
0000c79d  ti_sysbios_BIOS_exitFunc__I                                               
1001c031  ti_sysbios_BIOS_exit__E                                                   
1001bff5  ti_sysbios_BIOS_getCpuFreq__E                                             
0000b4af  ti_sysbios_BIOS_linkedWithIncorrectBootLibrary__E                         
0000b8db  ti_sysbios_BIOS_nullFunc__I                                               
0000bfb1  ti_sysbios_BIOS_registerRTSLock__I                                        
0000bfd5  ti_sysbios_BIOS_removeRTSLock__I                                          
0000c141  ti_sysbios_BIOS_rtsLock__I                                                
0000c6cd  ti_sysbios_BIOS_rtsUnlock__I                                              
1001c041  ti_sysbios_BIOS_setThreadType__E                                          
0000ba2d  ti_sysbios_BIOS_startFunc__I                                              
1001c051  ti_sysbios_BIOS_start__E                                                  
000080f9  ti_sysbios_family_arm_cc26xx_Boot_trimDevice                              
00001406  ti_sysbios_family_arm_cc26xx_Timer_Module__id__C                          
1001bb45  ti_sysbios_family_arm_cc26xx_Timer_Module__startupDone__S                 
200001e4  ti_sysbios_family_arm_cc26xx_Timer_Module__state__V                       
1001ba6d  ti_sysbios_family_arm_cc26xx_Timer_Module_startup__E                      
200039a0  ti_sysbios_family_arm_cc26xx_Timer_Object__table__V                       
0000c161  ti_sysbios_family_arm_cc26xx_Timer_dynamicStub__E                         
0000ce31  ti_sysbios_family_arm_cc26xx_Timer_getCount64__E                          
0000ba5d  ti_sysbios_family_arm_cc26xx_Timer_getCurrentTick__E                      
1001c24d  ti_sysbios_family_arm_cc26xx_Timer_getExpiredTicks__E                     
0000bff9  ti_sysbios_family_arm_cc26xx_Timer_getMaxTicks__E                         
1001c251  ti_sysbios_family_arm_cc26xx_Timer_getPeriod__E                           
0000b7d9  ti_sysbios_family_arm_cc26xx_Timer_initDevice__I                          
1001a465  ti_sysbios_family_arm_cc26xx_Timer_periodicStub__E                        
1001b765  ti_sysbios_family_arm_cc26xx_Timer_postInit__I                            
0000b8a9  ti_sysbios_family_arm_cc26xx_Timer_setNextTick__E                         
1001c255  ti_sysbios_family_arm_cc26xx_Timer_setPeriod__E                           
0000b1d9  ti_sysbios_family_arm_cc26xx_Timer_setThreshold__I                        
00009719  ti_sysbios_family_arm_cc26xx_Timer_start__E                               
00001384  ti_sysbios_family_arm_cc26xx_Timer_startupNeeded__C                       
1001b791  ti_sysbios_family_arm_cc26xx_Timer_startup__E                             
200001ec  ti_sysbios_family_arm_cc26xx_TimestampProvider_Module__state__V           
1001bb65  ti_sysbios_family_arm_cc26xx_TimestampProvider_Module_startup__E          
0000cb45  ti_sysbios_family_arm_cc26xx_TimestampProvider_get32__E                   
1001b9cd  ti_sysbios_family_arm_cc26xx_TimestampProvider_get64__E                   
1001c12b  ti_sysbios_family_arm_cc26xx_TimestampProvider_getFreq__E                 
00001408  ti_sysbios_family_arm_cc26xx_TimestampProvider_useClockTimer__C           
00001388  ti_sysbios_family_arm_m3_Hwi_E_alreadyDefined__C                          
0000138c  ti_sysbios_family_arm_m3_Hwi_E_hwiLimitExceeded__C                        
1001aed1  ti_sysbios_family_arm_m3_Hwi_Instance_finalize__E                         
1001a3c5  ti_sysbios_family_arm_m3_Hwi_Instance_init__E                             
20003d76  ti_sysbios_family_arm_m3_Hwi_Module_State_0_excActive__A                  
2000402c  ti_sysbios_family_arm_m3_Hwi_Module_State_0_excContext__A                 
20004030  ti_sysbios_family_arm_m3_Hwi_Module_State_0_excStack__A                   
0000140a  ti_sysbios_family_arm_m3_Hwi_Module__id__C                                
20003fb4  ti_sysbios_family_arm_m3_Hwi_Module__root__V                              
1001bb85  ti_sysbios_family_arm_m3_Hwi_Module__startupDone__S                       
20000144  ti_sysbios_family_arm_m3_Hwi_Module__state__V                             
1001b1c1  ti_sysbios_family_arm_m3_Hwi_Module_startup__E                            
00001390  ti_sysbios_family_arm_m3_Hwi_NUM_INTERRUPTS__C                            
000011d0  ti_sysbios_family_arm_m3_Hwi_Object__DESC__C                              
00001070  ti_sysbios_family_arm_m3_Hwi_Object__PARAMS__C                            
00001394  ti_sysbios_family_arm_m3_Hwi_Object__count__C                             
1001aab1  ti_sysbios_family_arm_m3_Hwi_Object__create__S                            
1001bba5  ti_sysbios_family_arm_m3_Hwi_Object__delete__S                            
1001be65  ti_sysbios_family_arm_m3_Hwi_Object__destruct__S                          
1001b7bd  ti_sysbios_family_arm_m3_Hwi_Object__get__S                               
00001398  ti_sysbios_family_arm_m3_Hwi_Object__table__C                             
20003e3c  ti_sysbios_family_arm_m3_Hwi_Object__table__V                             
1001c139  ti_sysbios_family_arm_m3_Hwi_Params__init__S                              
0000139c  ti_sysbios_family_arm_m3_Hwi_ccr__C                                       
1001af29  ti_sysbios_family_arm_m3_Hwi_construct                                    
0000b439  ti_sysbios_family_arm_m3_Hwi_construct2__E                                
1001ab15  ti_sysbios_family_arm_m3_Hwi_create                                       
1001c259  ti_sysbios_family_arm_m3_Hwi_delete                                       
1001c25d  ti_sysbios_family_arm_m3_Hwi_destruct                                     
1001c145  ti_sysbios_family_arm_m3_Hwi_disableFxn__E                                
1001b251  ti_sysbios_family_arm_m3_Hwi_disableInterrupt__E                          
1001aa49  ti_sysbios_family_arm_m3_Hwi_dispatchC__I                                 
20001b28  ti_sysbios_family_arm_m3_Hwi_dispatchTable                                
1001c899  ti_sysbios_family_arm_m3_Hwi_dispatch__I                                  
1001c1f7  ti_sysbios_family_arm_m3_Hwi_doSwiRestore__I                              
1001c20f  ti_sysbios_family_arm_m3_Hwi_doTaskRestore__I                             
1001c151  ti_sysbios_family_arm_m3_Hwi_enableFxn__E                                 
1001b295  ti_sysbios_family_arm_m3_Hwi_enableInterrupt__E                           
1001c9fd  ti_sysbios_family_arm_m3_Hwi_excHandlerAsm__I                             
000013a0  ti_sysbios_family_arm_m3_Hwi_excHandlerFunc__C                            
1001bbc5  ti_sysbios_family_arm_m3_Hwi_excHandler__I                                
1001b461  ti_sysbios_family_arm_m3_Hwi_getStackInfo__E                              
1001a695  ti_sysbios_family_arm_m3_Hwi_initNVIC__E                                  
1001c9b5  ti_sysbios_family_arm_m3_Hwi_initStacks__E                                
000013a4  ti_sysbios_family_arm_m3_Hwi_nullIsrFunc__C                               
000013a8  ti_sysbios_family_arm_m3_Hwi_numSparseInterrupts__C                       
e000e000  ti_sysbios_family_arm_m3_Hwi_nvic                                         
1001ca3b  ti_sysbios_family_arm_m3_Hwi_pendSV__I                                    
1001c061  ti_sysbios_family_arm_m3_Hwi_plug__E                                      
1001a315  ti_sysbios_family_arm_m3_Hwi_postInit__I                                  
0000caa1  ti_sysbios_family_arm_m3_Hwi_post__E                                      
000013ac  ti_sysbios_family_arm_m3_Hwi_priGroup__C                                  
20000000  ti_sysbios_family_arm_m3_Hwi_ramVectors                                   
00000000  ti_sysbios_family_arm_m3_Hwi_resetVectors                                 
1001c215  ti_sysbios_family_arm_m3_Hwi_restoreFxn__E                                
1001ca53  ti_sysbios_family_arm_m3_Hwi_return                                       
0000cdbf  ti_sysbios_family_arm_m3_Hwi_setFunc__E                                   
1001be81  ti_sysbios_family_arm_m3_Hwi_setPriority__E                               
1001c1ff  ti_sysbios_family_arm_m3_Hwi_startup__E                                   
00012264  ti_sysbios_family_arm_m3_Hwi_swiDisable__C                                
00012268  ti_sysbios_family_arm_m3_Hwi_swiRestoreHwi__C                             
1001c009  ti_sysbios_family_arm_m3_Hwi_switchFromBootStack__E                       
1001c261  ti_sysbios_family_arm_m3_TaskSupport_Module__startupDone__S               
1001c969  ti_sysbios_family_arm_m3_TaskSupport_buildTaskStack                       
1001c15d  ti_sysbios_family_arm_m3_TaskSupport_getStackAlignment__E                 
1001ca55  ti_sysbios_family_arm_m3_TaskSupport_glue                                 
000013b0  ti_sysbios_family_arm_m3_TaskSupport_stackAlignment__C                    
1001b499  ti_sysbios_family_arm_m3_TaskSupport_start__E                             
1001ca65  ti_sysbios_family_arm_m3_TaskSupport_swap__E                              
1001ca1d  ti_sysbios_family_xxx_Hwi_switchAndRunFunc                                
1001bbe5  ti_sysbios_gates_GateHwi_Handle__label__S                                 
1001b45f  ti_sysbios_gates_GateHwi_Instance_init__E                                 
0000111c  ti_sysbios_gates_GateHwi_Module__FXNS__C                                  
0000140c  ti_sysbios_gates_GateHwi_Module__id__C                                    
20003fbc  ti_sysbios_gates_GateHwi_Module__root__V                                  
000011f0  ti_sysbios_gates_GateHwi_Object__DESC__C                                  
00001330  ti_sysbios_gates_GateHwi_Object__PARAMS__C                                
1001ba91  ti_sysbios_gates_GateHwi_Object__create__S                                
1001bc05  ti_sysbios_gates_GateHwi_Object__delete__S                                
1001c169  ti_sysbios_gates_GateHwi_enter__E                                         
1001c21b  ti_sysbios_gates_GateHwi_leave__E                                         
1001c265  ti_sysbios_gates_GateHwi_query__E                                         
1001bc25  ti_sysbios_gates_GateMutex_Handle__label__S                               
000014d0  ti_sysbios_gates_GateMutex_Instance_State_sem__O                          
1001c071  ti_sysbios_gates_GateMutex_Instance_finalize__E                           
1001be9d  ti_sysbios_gates_GateMutex_Instance_init__E                               
00001140  ti_sysbios_gates_GateMutex_Module__FXNS__C                                
0000140e  ti_sysbios_gates_GateMutex_Module__id__C                                  
20003fc4  ti_sysbios_gates_GateMutex_Module__root__V                                
00001210  ti_sysbios_gates_GateMutex_Object__DESC__C                                
00001348  ti_sysbios_gates_GateMutex_Object__PARAMS__C                              
1001b645  ti_sysbios_gates_GateMutex_Object__create__S                              
1001bab5  ti_sysbios_gates_GateMutex_Object__delete__S                              
1001bc45  ti_sysbios_gates_GateMutex_Object__destruct__S                            
20003a64  ti_sysbios_gates_GateMutex_Object__table__V                               
1001c175  ti_sysbios_gates_GateMutex_Params__init__S                                
1001b7e9  ti_sysbios_gates_GateMutex_construct                                      
1001b675  ti_sysbios_gates_GateMutex_create                                         
1001c269  ti_sysbios_gates_GateMutex_delete                                         
1001c26d  ti_sysbios_gates_GateMutex_destruct                                       
1001b6a5  ti_sysbios_gates_GateMutex_enter__E                                       
1001bf99  ti_sysbios_gates_GateMutex_leave__E                                       
1001c271  ti_sysbios_gates_GateMutex_query__E                                       
1001c275  ti_sysbios_hal_Hwi_HwiProxy_Module__startupDone__S                        
1001bb85  ti_sysbios_hal_Hwi_HwiProxy_Module__startupDone__S__mangled__             
1001c081  ti_sysbios_hal_Hwi_HwiProxy_Object__create__S                             
1001bba5  ti_sysbios_hal_Hwi_HwiProxy_Object__delete__S                             
1001c139  ti_sysbios_hal_Hwi_HwiProxy_Params__init__S                               
1001c139  ti_sysbios_hal_Hwi_HwiProxy_Params__init__S__mangled__                    
1001be45  ti_sysbios_hal_Hwi_HwiProxy_create                                        
1001c279  ti_sysbios_hal_Hwi_HwiProxy_delete                                        
1001c27d  ti_sysbios_hal_Hwi_HwiProxy_disableInterrupt__E                           
1001b251  ti_sysbios_hal_Hwi_HwiProxy_disableInterrupt__E__mangled__                
1001c281  ti_sysbios_hal_Hwi_HwiProxy_enableInterrupt__E                            
1001b295  ti_sysbios_hal_Hwi_HwiProxy_enableInterrupt__E__mangled__                 
1001c285  ti_sysbios_hal_Hwi_HwiProxy_getStackInfo__E                               
1001b461  ti_sysbios_hal_Hwi_HwiProxy_getStackInfo__E__mangled__                    
0000caa1  ti_sysbios_hal_Hwi_HwiProxy_post__E                                       
1001c289  ti_sysbios_hal_Hwi_HwiProxy_startup__E                                    
1001c1ff  ti_sysbios_hal_Hwi_HwiProxy_startup__E__mangled__                         
1001c28d  ti_sysbios_hal_Hwi_HwiProxy_switchFromBootStack__E                        
1001c009  ti_sysbios_hal_Hwi_HwiProxy_switchFromBootStack__E__mangled__             
1001c1ed  ti_sysbios_hal_Hwi_Instance_finalize__E                                   
1001b9f5  ti_sysbios_hal_Hwi_Instance_init__E                                       
20003fcc  ti_sysbios_hal_Hwi_Module__root__V                                        
1001c01d  ti_sysbios_hal_Hwi_Module_startup__E                                      
00001230  ti_sysbios_hal_Hwi_Object__DESC__C                                        
000010a0  ti_sysbios_hal_Hwi_Object__PARAMS__C                                      
1001bc65  ti_sysbios_hal_Hwi_Object__delete__S                                      
1001ab79  ti_sysbios_hal_Hwi_create                                                 
1001c291  ti_sysbios_hal_Hwi_delete                                                 
1001c27d  ti_sysbios_hal_Hwi_disableInterrupt__E                                    
1001c27d  ti_sysbios_hal_Hwi_disableInterrupt__E                                    
1001c281  ti_sysbios_hal_Hwi_enableInterrupt__E                                     
1001c281  ti_sysbios_hal_Hwi_enableInterrupt__E                                     
1001c285  ti_sysbios_hal_Hwi_getStackInfo__E                                        
1001c285  ti_sysbios_hal_Hwi_getStackInfo__E                                        
1001b815  ti_sysbios_hal_Hwi_initStack                                              
0000caa1  ti_sysbios_hal_Hwi_post__E                                                
1001c289  ti_sysbios_hal_Hwi_startup__E                                             
1001c289  ti_sysbios_hal_Hwi_startup__E                                             
1001c295  ti_sysbios_hal_Hwi_switchFromBootStack__E                                 
1001c295  ti_sysbios_hal_Hwi_switchFromBootStack__E                                 
000013b4  ti_sysbios_heaps_HeapMem_E_memory__C                                      
1001bc85  ti_sysbios_heaps_HeapMem_Handle__label__S                                 
1001b4d1  ti_sysbios_heaps_HeapMem_Instance_init__E                                 
1001bc25  ti_sysbios_heaps_HeapMem_Module_GateProxy_Handle__label__S                
1001bc25  ti_sysbios_heaps_HeapMem_Module_GateProxy_Handle__label__S__mangled__     
1001bab5  ti_sysbios_heaps_HeapMem_Module_GateProxy_Object__delete__S               
1001c175  ti_sysbios_heaps_HeapMem_Module_GateProxy_Params__init__S                 
1001c175  ti_sysbios_heaps_HeapMem_Module_GateProxy_Params__init__S__mangled__      
1001c299  ti_sysbios_heaps_HeapMem_Module_GateProxy_enter__E                        
1001c29d  ti_sysbios_heaps_HeapMem_Module_GateProxy_leave__E                        
1001c271  ti_sysbios_heaps_HeapMem_Module_GateProxy_query__E                        
1001c271  ti_sysbios_heaps_HeapMem_Module_GateProxy_query__E__mangled__             
000010cc  ti_sysbios_heaps_HeapMem_Module__FXNS__C                                  
000013b8  ti_sysbios_heaps_HeapMem_Module__gateObj__C                               
00001410  ti_sysbios_heaps_HeapMem_Module__id__C                                    
20003fd4  ti_sysbios_heaps_HeapMem_Module__root__V                                  
00001250  ti_sysbios_heaps_HeapMem_Object__DESC__C                                  
00001164  ti_sysbios_heaps_HeapMem_Object__PARAMS__C                                
000013bc  ti_sysbios_heaps_HeapMem_Object__count__C                                 
1001b841  ti_sysbios_heaps_HeapMem_Object__create__S                                
1001bca5  ti_sysbios_heaps_HeapMem_Object__delete__S                                
1001b86d  ti_sysbios_heaps_HeapMem_Object__get__S                                   
000013c0  ti_sysbios_heaps_HeapMem_Object__table__C                                 
20003e54  ti_sysbios_heaps_HeapMem_Object__table__V                                 
1001a195  ti_sysbios_heaps_HeapMem_alloc__E                                         
1001a791  ti_sysbios_heaps_HeapMem_free__E                                          
1001b209  ti_sysbios_heaps_HeapMem_getStats__E                                      
0000a419  ti_sysbios_heaps_HeapMem_initPrimary__I                                   
1001b541  ti_sysbios_heaps_HeapMem_init__I                                          
1001c2a1  ti_sysbios_heaps_HeapMem_isBlocking__E                                    
0001226c  ti_sysbios_heaps_HeapMem_primaryHeapBaseAddr__C                           
00012270  ti_sysbios_heaps_HeapMem_primaryHeapEndAddr__C                            
000013c4  ti_sysbios_heaps_HeapMem_reqAlign__C                                      
1001c101  ti_sysbios_heaps_HeapMem_restore__E                                       
1001bfc9  ti_sysbios_knl_Clock_Instance_finalize__E                                 
1001b509  ti_sysbios_knl_Clock_Instance_init__E                                     
000014d4  ti_sysbios_knl_Clock_Module_State_clockQ__O                               
20003fdc  ti_sysbios_knl_Clock_Module__root__V                                      
20000178  ti_sysbios_knl_Clock_Module__state__V                                     
1001bcc5  ti_sysbios_knl_Clock_Module_startup__E                                    
00001270  ti_sysbios_knl_Clock_Object__DESC__C                                      
00001188  ti_sysbios_knl_Clock_Object__PARAMS__C                                    
1001bad9  ti_sysbios_knl_Clock_Object__delete__S                                    
1001bce5  ti_sysbios_knl_Clock_Object__destruct__S                                  
20003cb8  ti_sysbios_knl_Clock_Object__table__V                                     
1001c181  ti_sysbios_knl_Clock_Params__init__S                                      
1001c2a5  ti_sysbios_knl_Clock_TimerProxy_Module__startupDone__S                    
1001bb45  ti_sysbios_knl_Clock_TimerProxy_Module__startupDone__S__mangled__         
1001c091  ti_sysbios_knl_Clock_TimerProxy_getCurrentTick__E                         
1001c2a9  ti_sysbios_knl_Clock_TimerProxy_getExpiredTicks__E                        
1001c0a1  ti_sysbios_knl_Clock_TimerProxy_getMaxTicks__E                            
1001c2ad  ti_sysbios_knl_Clock_TimerProxy_getPeriod__E                              
1001c0b1  ti_sysbios_knl_Clock_TimerProxy_setNextTick__E                            
1001b791  ti_sysbios_knl_Clock_TimerProxy_startup__E                                
1001b791  ti_sysbios_knl_Clock_TimerProxy_startup__E__mangled__                     
1001ba1d  ti_sysbios_knl_Clock_addI__E                                              
1001b575  ti_sysbios_knl_Clock_construct                                            
1001b3e9  ti_sysbios_knl_Clock_create                                               
1001c2b1  ti_sysbios_knl_Clock_delete                                               
1001c2b5  ti_sysbios_knl_Clock_destruct                                             
0000c941  ti_sysbios_knl_Clock_doTick__I                                            
0000bd01  ti_sysbios_knl_Clock_getTicksUntilInterrupt__E                            
1001b6d5  ti_sysbios_knl_Clock_getTicks__E                                          
0000bdaf  ti_sysbios_knl_Clock_getTimeout__E                                        
1001c18d  ti_sysbios_knl_Clock_getTimerHandle__E                                    
0000ce35  ti_sysbios_knl_Clock_isActive__E                                          
1001be63  ti_sysbios_knl_Clock_logTick__E                                           
1001c2b9  ti_sysbios_knl_Clock_removeI__E                                           
1001beb9  ti_sysbios_knl_Clock_scheduleNextTick__E                                  
000013c8  ti_sysbios_knl_Clock_serviceMargin__C                                     
1001c2bd  ti_sysbios_knl_Clock_setTimeout__E                                        
1001a715  ti_sysbios_knl_Clock_startI__E                                            
1001bfdf  ti_sysbios_knl_Clock_start__E                                             
0000c181  ti_sysbios_knl_Clock_stop__E                                              
00001414  ti_sysbios_knl_Clock_tickMode__C                                          
00012274  ti_sysbios_knl_Clock_tickPeriod__C                                        
00012278  ti_sysbios_knl_Clock_triggerClock__C                                      
0000bb73  ti_sysbios_knl_Clock_triggerFunc__I                                       
1001a809  ti_sysbios_knl_Clock_walkQueueDynamic__E                                  
0000891d  ti_sysbios_knl_Clock_workFuncDynamic__E                                   
1001a881  ti_sysbios_knl_Clock_workFunc__E                                          
0001227c  ti_sysbios_knl_Event_Instance_State_pendQ__O                              
0000c955  ti_sysbios_knl_Event_Instance_init__E                                     
20003fe4  ti_sysbios_knl_Event_Module__root__V                                      
00012090  ti_sysbios_knl_Event_Object__DESC__C                                      
00012198  ti_sysbios_knl_Event_Object__PARAMS__C                                    
0000cc45  ti_sysbios_knl_Event_Params__init__S                                      
0000c1a1  ti_sysbios_knl_Event_checkEvents__I                                       
0000bd2d  ti_sysbios_knl_Event_construct                                            
0000bd59  ti_sysbios_knl_Event_pendTimeout__I                                       
00006b69  ti_sysbios_knl_Event_pend__E                                              
000097fd  ti_sysbios_knl_Event_post__E                                              
00012280  ti_sysbios_knl_Idle_funcList__A                                           
00001378  ti_sysbios_knl_Idle_funcList__C                                           
1001c207  ti_sysbios_knl_Idle_loop__E                                               
1001bd05  ti_sysbios_knl_Idle_run__E                                                
000014d8  ti_sysbios_knl_Mailbox_Instance_State_dataQue__O                          
000014dc  ti_sysbios_knl_Mailbox_Instance_State_dataSem__O                          
000014e0  ti_sysbios_knl_Mailbox_Instance_State_freeQue__O                          
000014e4  ti_sysbios_knl_Mailbox_Instance_State_freeSem__O                          
1001a8f9  ti_sysbios_knl_Mailbox_Instance_finalize__E                               
1001a0cd  ti_sysbios_knl_Mailbox_Instance_init__E                                   
20003fec  ti_sysbios_knl_Mailbox_Module__root__V                                    
1001b2d9  ti_sysbios_knl_Mailbox_Module_startup__E                                  
00001290  ti_sysbios_knl_Mailbox_Object__DESC__C                                    
0000103c  ti_sysbios_knl_Mailbox_Object__PARAMS__C                                  
000013cc  ti_sysbios_knl_Mailbox_Object__count__C                                   
1001bd25  ti_sysbios_knl_Mailbox_Object__delete__S                                  
1001bed5  ti_sysbios_knl_Mailbox_Object__destruct__S                                
1001b899  ti_sysbios_knl_Mailbox_Object__get__S                                     
000013d0  ti_sysbios_knl_Mailbox_Object__table__C                                   
1001c199  ti_sysbios_knl_Mailbox_Params__init__S                                    
1001af81  ti_sysbios_knl_Mailbox_construct                                          
1001abdd  ti_sysbios_knl_Mailbox_create                                             
1001c2c1  ti_sysbios_knl_Mailbox_delete                                             
1001c2c5  ti_sysbios_knl_Mailbox_destruct                                           
000013d4  ti_sysbios_knl_Mailbox_maxTypeAlign__C                                    
1001a969  ti_sysbios_knl_Mailbox_pend__E                                            
1001b8c5  ti_sysbios_knl_Mailbox_postInit__I                                        
1001a58d  ti_sysbios_knl_Mailbox_post__E                                            
1001c227  ti_sysbios_knl_Queue_Instance_init__E                                     
20003ff4  ti_sysbios_knl_Queue_Module__root__V                                      
000012b0  ti_sysbios_knl_Queue_Object__DESC__C                                      
00001360  ti_sysbios_knl_Queue_Object__PARAMS__C                                    
000013d8  ti_sysbios_knl_Queue_Object__count__C                                     
1001bd45  ti_sysbios_knl_Queue_Object__delete__S                                    
1001bef1  ti_sysbios_knl_Queue_Object__destruct__S                                  
1001bd65  ti_sysbios_knl_Queue_Object__get__S                                       
000013dc  ti_sysbios_knl_Queue_Object__table__C                                     
1001b8f1  ti_sysbios_knl_Queue_construct                                            
1001b91d  ti_sysbios_knl_Queue_create                                               
1001c2c9  ti_sysbios_knl_Queue_delete                                               
1001c1a5  ti_sysbios_knl_Queue_dequeue__E                                           
1001c2cd  ti_sysbios_knl_Queue_destruct                                             
1001c22d  ti_sysbios_knl_Queue_elemClear__E                                         
1001c10f  ti_sysbios_knl_Queue_empty__E                                             
1001c1b1  ti_sysbios_knl_Queue_enqueue__E                                           
1001bf0d  ti_sysbios_knl_Queue_get__E                                               
1001c2d1  ti_sysbios_knl_Queue_head__E                                              
1001c2d5  ti_sysbios_knl_Queue_next__E                                              
1001bf29  ti_sysbios_knl_Queue_put__E                                               
1001c11d  ti_sysbios_knl_Queue_remove__E                                            
000014e8  ti_sysbios_knl_Semaphore_Instance_State_pendQ__O                          
1001c0c1  ti_sysbios_knl_Semaphore_Instance_finalize__E                             
1001bafd  ti_sysbios_knl_Semaphore_Instance_init__E                                 
20003ffc  ti_sysbios_knl_Semaphore_Module__root__V                                  
000012d0  ti_sysbios_knl_Semaphore_Object__DESC__C                                  
000011ac  ti_sysbios_knl_Semaphore_Object__PARAMS__C                                
1001bb21  ti_sysbios_knl_Semaphore_Object__delete__S                                
1001bd85  ti_sysbios_knl_Semaphore_Object__destruct__S                              
1001c1bd  ti_sysbios_knl_Semaphore_Params__init__S                                  
1001b705  ti_sysbios_knl_Semaphore_construct                                        
1001b5a9  ti_sysbios_knl_Semaphore_create                                           
1001c2d9  ti_sysbios_knl_Semaphore_delete                                           
1001c2dd  ti_sysbios_knl_Semaphore_destruct                                         
1001b949  ti_sysbios_knl_Semaphore_pendTimeout__I                                   
1001a001  ti_sysbios_knl_Semaphore_pend__E                                          
1001ac41  ti_sysbios_knl_Semaphore_post__E                                          
1001bf97  ti_sysbios_knl_Swi_Instance_finalize__E                                   
1001aca5  ti_sysbios_knl_Swi_Instance_init__E                                       
20003acc  ti_sysbios_knl_Swi_Module_State_0_readyQ__A                               
20004004  ti_sysbios_knl_Swi_Module__root__V                                        
200001c8  ti_sysbios_knl_Swi_Module__state__V                                       
1001c233  ti_sysbios_knl_Swi_Module_startup__E                                      
000012f0  ti_sysbios_knl_Swi_Object__DESC__C                                        
000010f4  ti_sysbios_knl_Swi_Object__PARAMS__C                                      
000013e0  ti_sysbios_knl_Swi_Object__count__C                                       
1001bda5  ti_sysbios_knl_Swi_Object__delete__S                                      
1001bf45  ti_sysbios_knl_Swi_Object__destruct__S                                    
1001b975  ti_sysbios_knl_Swi_Object__get__S                                         
000013e4  ti_sysbios_knl_Swi_Object__table__C                                       
20003afc  ti_sysbios_knl_Swi_Object__table__V                                       
1001c1c9  ti_sysbios_knl_Swi_Params__init__S                                        
1001b085  ti_sysbios_knl_Swi_construct                                              
0000c421  ti_sysbios_knl_Swi_construct2__E                                          
1001ad05  ti_sysbios_knl_Swi_create                                                 
1001c2e1  ti_sysbios_knl_Swi_delete                                                 
1001c2e5  ti_sysbios_knl_Swi_destruct                                               
1001c0d1  ti_sysbios_knl_Swi_disable__E                                             
1001c0e1  ti_sysbios_knl_Swi_enabled__E                                             
0000cc81  ti_sysbios_knl_Swi_getTrigger__E                                          
000013e8  ti_sysbios_knl_Swi_numPriorities__C                                       
0000c6e5  ti_sysbios_knl_Swi_or__E                                                  
1001c2e9  ti_sysbios_knl_Swi_postInit__I                                            
1001b31d  ti_sysbios_knl_Swi_post__E                                                
1001ad61  ti_sysbios_knl_Swi_restoreHwi__E                                          
1001b5dd  ti_sysbios_knl_Swi_restore__E                                             
1001b0d5  ti_sysbios_knl_Swi_runLoop__I                                             
1001afd9  ti_sysbios_knl_Swi_run__I                                                 
1001b031  ti_sysbios_knl_Swi_schedule__I                                            
0000b80d  ti_sysbios_knl_Swi_setPri__E                                              
1001c239  ti_sysbios_knl_Swi_startup__E                                             
200014b0  ti_sysbios_knl_Task_Instance_State_0_stack__A                             
1001a4f9  ti_sysbios_knl_Task_Instance_finalize__E                                  
1001a259  ti_sysbios_knl_Task_Instance_init__E                                      
20004034  ti_sysbios_knl_Task_Module_State_0_idleTask__A                            
20003b2c  ti_sysbios_knl_Task_Module_State_0_readyQ__A                              
000014ec  ti_sysbios_knl_Task_Module_State_inactiveQ__O                             
2000400c  ti_sysbios_knl_Task_Module__root__V                                       
20000100  ti_sysbios_knl_Task_Module__state__V                                      
1001adbd  ti_sysbios_knl_Task_Module_startup__E                                     
00001310  ti_sysbios_knl_Task_Object__DESC__C                                       
00001000  ti_sysbios_knl_Task_Object__PARAMS__C                                     
000013ec  ti_sysbios_knl_Task_Object__count__C                                      
1001bdc5  ti_sysbios_knl_Task_Object__delete__S                                     
1001bf61  ti_sysbios_knl_Task_Object__destruct__S                                   
1001bde5  ti_sysbios_knl_Task_Object__get__S                                        
000013f0  ti_sysbios_knl_Task_Object__table__C                                      
20003954  ti_sysbios_knl_Task_Object__table__V                                      
1001c1d5  ti_sysbios_knl_Task_Params__init__S                                       
1001c2ed  ti_sysbios_knl_Task_SupportProxy_Module__startupDone__S                   
1001c261  ti_sysbios_knl_Task_SupportProxy_Module__startupDone__S__mangled__        
1001c2f1  ti_sysbios_knl_Task_SupportProxy_getStackAlignment__E                     
1001c15d  ti_sysbios_knl_Task_SupportProxy_getStackAlignment__E__mangled__          
1001c2f5  ti_sysbios_knl_Task_SupportProxy_start__E                                 
1001b499  ti_sysbios_knl_Task_SupportProxy_start__E__mangled__                      
1001c2f9  ti_sysbios_knl_Task_SupportProxy_swap__E                                  
1001ca65  ti_sysbios_knl_Task_SupportProxy_swap__E__mangled__                       
000013f4  ti_sysbios_knl_Task_allBlockedFunc__C                                     
1001b361  ti_sysbios_knl_Task_allBlockedFunction__I                                 
1001b611  ti_sysbios_knl_Task_blockI__E                                             
1001b125  ti_sysbios_knl_Task_construct                                             
1001ae19  ti_sysbios_knl_Task_create                                                
000013f8  ti_sysbios_knl_Task_defaultStackHeap__C                                   
000013fc  ti_sysbios_knl_Task_defaultStackSize__C                                   
1001c2fd  ti_sysbios_knl_Task_delete                                                
1001c301  ti_sysbios_knl_Task_destruct                                              
1001c0f1  ti_sysbios_knl_Task_disable__E                                            
1001c23f  ti_sysbios_knl_Task_enable__E                                             
1001be05  ti_sysbios_knl_Task_enter__I                                              
1001b425  ti_sysbios_knl_Task_exit__E                                               
00001412  ti_sysbios_knl_Task_initStackFlag__C                                      
00001400  ti_sysbios_knl_Task_numConstructedTasks__C                                
1001a611  ti_sysbios_knl_Task_postInit__I                                           
1001b735  ti_sysbios_knl_Task_processVitalTaskFlag__I                               
1001be25  ti_sysbios_knl_Task_restoreHwi__E                                         
1001ba45  ti_sysbios_knl_Task_restore__E                                            
1001b175  ti_sysbios_knl_Task_schedule__I                                           
1001c1e1  ti_sysbios_knl_Task_self__E                                               
1001bf7d  ti_sysbios_knl_Task_sleepTimeout__I                                       
1001a9d9  ti_sysbios_knl_Task_sleep__E                                              
1001ae75  ti_sysbios_knl_Task_startCore__E                                          
1001c305  ti_sysbios_knl_Task_startup__E                                            
1001ca6d  ti_sysbios_knl_Task_swapReturn                                            
1001b9a1  ti_sysbios_knl_Task_unblockI__E                                           
1001bfb1  ti_sysbios_knl_Task_unblock__E                                            
1001b3a5  ti_sysbios_knl_Task_yield__E                                              
00001494  ti_sysbios_rom_ROM_AONRTCChannelEnable                                    
00001498  ti_sysbios_rom_ROM_AONRTCCompareValueSet                                  
0000149c  ti_sysbios_rom_ROM_AONRTCCurrentCompareValueGet                           
000014a0  ti_sysbios_rom_ROM_AONRTCEventClear                                       
000014a4  ti_sysbios_rom_ROM_ti_sysbios_family_arm_cc26xx_Timer_getCount64__E       
000014a8  ti_sysbios_rom_ROM_ti_sysbios_family_arm_cc26xx_Timer_getCurrentTick__E   
000014ac  ti_sysbios_rom_ROM_ti_sysbios_family_arm_cc26xx_Timer_getMaxTicks__E      
000014b0  ti_sysbios_rom_ROM_ti_sysbios_family_arm_cc26xx_Timer_initDevice__I       
000014b4  ti_sysbios_rom_ROM_ti_sysbios_family_arm_cc26xx_Timer_setNextTick__E      
000014b8  ti_sysbios_rom_ROM_ti_sysbios_family_arm_cc26xx_Timer_setThreshold__I     
000014bc  ti_sysbios_rom_ROM_ti_sysbios_family_arm_cc26xx_Timer_start__E            
000014c0  ti_sysbios_rom_ROM_ti_sysbios_family_arm_cc26xx_TimestampProvider_get32__E
000014c4  ti_sysbios_rom_ROM_xdc_runtime_Startup_getState__I                        
000014c8  ti_sysbios_rom_ROM_xdc_runtime_System_SupportProxy_abort__E               
000014cc  ti_sysbios_rom_ROM_xdc_runtime_System_SupportProxy_exit__E                
0000be03  ti_sysbios_rom_cortexm_cc13xx_CC13xx_badRomRevision__E                    
0000c6fd  ti_sysbios_rom_cortexm_cc13xx_CC13xx_checkRevision__E                     
1001ca97  ti_sysbios_rom_cortexm_cc13xx_CC13xx_getRevision__E                       
20003d18  tlmAdvData                                                                
20002474  tlmAdvFrame                                                               
000120b0  uartCC26XXHWAttrs                                                         
20001868  uartCC26XXObjects                                                         
2000225c  uartCC26XXRingBuffer                                                      
2000247c  ubBDAddr                                                                  
00011d8f  ubFeModeBias                                                              
20003c4c  ubParams                                                                  
000121f8  ubRfMode                                                                  
20003900  ubRfRegOverride                                                           
00012258  ubTxPowerTable                                                            
00011fa0  ubTxPowerVal                                                              
20003f70  ubleAntSwitchSel                                                          
000094c9  uble_buildAndPostEvt                                                      
00008fcd  uble_checkAddr                                                            
0000ba8d  uble_getPublicAddr                                                        
00009949  uble_processGAPMsg                                                        
000046f9  uble_processLLMsg                                                         
0000ad29  uble_processMsg                                                           
0000c715  uble_registerAntSwitchCB                                                  
000043f5  uble_setParameter                                                         
0000915d  uble_stackInit                                                            
00012250  udmaHWAttrs                                                               
2000227c  udmaObjects                                                               
00008c01  ugap_bcastInit                                                            
0000a18d  ugap_bcastSetDuty                                                         
0000b841  ugap_bcastStart                                                           
0000c1c1  ugap_bcastStop                                                            
0000b591  ugap_clockHandler                                                         
0000ad71  ugb_advPostprocessCB                                                      
0000bf1d  ugb_advPrepareCB                                                          
20003d37  uidAdvData                                                                
20002484  uidAdvFrame                                                               
20003f38  ulState                                                                   
00008a4d  ull_advDoneCb                                                             
0000c1e1  ull_advRegisterCB                                                         
00001b05  ull_advSchedule                                                           
0000aa01  ull_advStart                                                              
00009541  ull_advStop                                                               
0000b875  ull_clockHandler                                                          
000089b5  ull_init                                                                  
20002030  urAdvCmd                                                                  
20004020  urAdvHandle                                                               
20003cd8  urAdvParams                                                               
2000401c  urHandle                                                                  
20003c24  urSetup                                                                   
0000aa4d  urfi_clientEventCb                                                        
0000a1ed  urfi_getTxPowerVal                                                        
00007765  urfi_init                                                                 
00003da1  urfi_initAdvCmd                                                           
20003d56  urlAdvData                                                                
2000248c  urlAdvFrame                                                               
00001428  xdc_runtime_Assert_E_assertFailed__C                                      
1001c5a5  xdc_runtime_Assert_raise__I                                               
1001c6e9  xdc_runtime_Core_assignLabel__I                                           
1001c5ed  xdc_runtime_Core_assignParams__I                                          
1001c635  xdc_runtime_Core_constructObject__I                                       
1001c401  xdc_runtime_Core_createObject__I                                          
1001c4f5  xdc_runtime_Core_deleteObject__I                                          
1001c79d  xdc_runtime_Core_destructObject__I                                        
0000142c  xdc_runtime_Error_E_memory__C                                             
20003cf8  xdc_runtime_Error_IgnoreBlock                                             
1001c7b5  xdc_runtime_Error_check__E                                                
0000c72d  xdc_runtime_Error_init__E                                                 
00001430  xdc_runtime_Error_policyFxn__C                                            
0000c221  xdc_runtime_Error_policyMin__E                                            
1001c483  xdc_runtime_Error_policySpin__E                                           
00001490  xdc_runtime_Error_policy__C                                               
1001c765  xdc_runtime_Error_raiseX__E                                               
1001c881  xdc_runtime_Gate_enterSystem__E                                           
1001c875  xdc_runtime_Gate_leaveSystem__E                                           
00001434  xdc_runtime_IGateProvider_Interface__BASE__C                              
00001438  xdc_runtime_IHeap_Interface__BASE__C                                      
0000143c  xdc_runtime_IModule_Interface__BASE__C                                    
1001bbe5  xdc_runtime_Main_Module_GateProxy_Handle__label__S                        
1001c265  xdc_runtime_Main_Module_GateProxy_query__E                                
00001440  xdc_runtime_Main_Module__diagsEnabled__C                                  
00001444  xdc_runtime_Main_Module__diagsIncluded__C                                 
00001448  xdc_runtime_Main_Module__diagsMask__C                                     
00001488  xdc_runtime_Main_Module__id__C                                            
1001bc85  xdc_runtime_Memory_HeapProxy_Handle__label__S                             
1001bc85  xdc_runtime_Memory_HeapProxy_Handle__label__S__mangled__                  
1001bca5  xdc_runtime_Memory_HeapProxy_Object__delete__S                            
1001c885  xdc_runtime_Memory_HeapProxy_alloc__E                                     
1001c889  xdc_runtime_Memory_HeapProxy_free__E                                      
0000148a  xdc_runtime_Memory_Module__id__C                                          
20000200  xdc_runtime_Memory_Module__state__V                                       
1001c485  xdc_runtime_Memory_alloc__E                                               
1001c849  xdc_runtime_Memory_calloc__E                                              
0000144c  xdc_runtime_Memory_defaultHeapInstance__C                                 
1001c7fd  xdc_runtime_Memory_free__E                                                
1001c855  xdc_runtime_Memory_getMaxDefaultTypeAlign__E                              
1001c781  xdc_runtime_Memory_valloc__E                                              
200001f0  xdc_runtime_Startup_Module__state__V                                      
00000001  xdc_runtime_Startup__EXECFXN__C                                           
00000001  xdc_runtime_Startup__RESETFXN__C                                          
00001450  xdc_runtime_Startup_execImpl__C                                           
1001c555  xdc_runtime_Startup_exec__E                                               
0000c99f  xdc_runtime_Startup_exec__I                                               
00012220  xdc_runtime_Startup_firstFxns__A                                          
00001418  xdc_runtime_Startup_firstFxns__C                                          
0000a475  xdc_runtime_Startup_getState__I                                           
00001420  xdc_runtime_Startup_lastFxns__C                                           
00001454  xdc_runtime_Startup_maxPasses__C                                          
0000cc8d  xdc_runtime_Startup_reset__I                                              
0000cc99  xdc_runtime_Startup_rtsDone__E                                            
000121c4  xdc_runtime_Startup_sfxnRts__A                                            
00001458  xdc_runtime_Startup_sfxnRts__C                                            
00011fec  xdc_runtime_Startup_sfxnTab__A                                            
0000145c  xdc_runtime_Startup_sfxnTab__C                                            
00001460  xdc_runtime_Startup_startModsFxn__C                                       
1001c309  xdc_runtime_Startup_startMods__I                                          
00001464  xdc_runtime_SysCallback_abortFxn__C                                       
1001c80d  xdc_runtime_SysCallback_abort__E                                          
0000c48b  xdc_runtime_SysCallback_defaultAbort                                      
0000cb6b  xdc_runtime_SysCallback_defaultExit                                       
0000cd27  xdc_runtime_SysCallback_defaultPutch                                      
0000ce39  xdc_runtime_SysCallback_defaultReady                                      
00001468  xdc_runtime_SysCallback_exitFxn__C                                        
1001c81d  xdc_runtime_SysCallback_exit__E                                           
00012284  xdc_runtime_SysCallback_putchFxn__C                                       
0000cac1  xdc_runtime_SysCallback_putch__E                                          
00012288  xdc_runtime_SysCallback_readyFxn__C                                       
0000cad1  xdc_runtime_SysCallback_ready__E                                          
1001bbe5  xdc_runtime_System_Module_GateProxy_Handle__label__S                      
1001bbe5  xdc_runtime_System_Module_GateProxy_Handle__label__S__mangled__           
1001bc05  xdc_runtime_System_Module_GateProxy_Object__delete__S                     
1001c88d  xdc_runtime_System_Module_GateProxy_enter__E                              
1001c891  xdc_runtime_System_Module_GateProxy_leave__E                              
1001c265  xdc_runtime_System_Module_GateProxy_query__E                              
1001c265  xdc_runtime_System_Module_GateProxy_query__E__mangled__                   
20004014  xdc_runtime_System_Module_State_0_atexitHandlers__A                       
200001f8  xdc_runtime_System_Module__state__V                                       
1001c87b  xdc_runtime_System_Module_startup__E                                      
1001c80d  xdc_runtime_System_SupportProxy_abort__E                                  
1001c81d  xdc_runtime_System_SupportProxy_exit__E                                   
0000cac1  xdc_runtime_System_SupportProxy_putch__E                                  
0000cad1  xdc_runtime_System_SupportProxy_ready__E                                  
0000146c  xdc_runtime_System_abortFxn__C                                            
1001c895  xdc_runtime_System_abortSpin__E                                           
1001c745  xdc_runtime_System_abort__E                                               
1001c67d  xdc_runtime_System_atexit__E                                              
00000bfd  xdc_runtime_System_doPrint__I                                             
00001470  xdc_runtime_System_exitFxn__C                                             
1001c897  xdc_runtime_System_exitSpin__E                                            
1001c7cd  xdc_runtime_System_exit__E                                                
0001228c  xdc_runtime_System_extendFxn__C                                           
0000986d  xdc_runtime_System_formatNum__I                                           
00001474  xdc_runtime_System_maxAtexitHandlers__C                                   
00004b49  xdc_runtime_System_printfExtend__I                                        
1001c6b5  xdc_runtime_System_processAtExit__E                                       
0000bdd9  xdc_runtime_System_putchar__I                                             
0000cae1  xdc_runtime_System_vsnprintf__E                                           
0000148c  xdc_runtime_Text_charCnt__C                                               
00011e42  xdc_runtime_Text_charTab__A                                               
00001478  xdc_runtime_Text_charTab__C                                               
1001c719  xdc_runtime_Text_cordText__E                                              
0000148e  xdc_runtime_Text_isLoaded__C                                              
0000147c  xdc_runtime_Text_nameEmpty__C                                             
00001480  xdc_runtime_Text_nameStatic__C                                            
00001484  xdc_runtime_Text_nameUnknown__C                                           
1001c7e5  xdc_runtime_Text_ropeText__E                                              
1001c82d  xdc_runtime_Timestamp_SupportProxy_get32__E                               
0000cb45  xdc_runtime_Timestamp_SupportProxy_get32__E__mangled__                    
1001b9cd  xdc_runtime_Timestamp_SupportProxy_get64__E                               
1001b9cd  xdc_runtime_Timestamp_SupportProxy_get64__E__mangled__                    
1001c12b  xdc_runtime_Timestamp_SupportProxy_getFreq__E                             
1001c12b  xdc_runtime_Timestamp_SupportProxy_getFreq__E__mangled__                  
1001c82d  xdc_runtime_Timestamp_get32__E                                            
1001c82d  xdc_runtime_Timestamp_get32__E                                            
1001b9cd  xdc_runtime_Timestamp_get64__E                                            
1001b9cd  xdc_runtime_Timestamp_get64__E                                            
1001c12b  xdc_runtime_Timestamp_getFreq__E                                          
1001c12b  xdc_runtime_Timestamp_getFreq__E                                          


GLOBAL SYMBOLS: SORTED BY Symbol Address 

address   name                                                                      
-------   ----                                                                      
00000000  __ASM__                                                                   
00000000  ti_sysbios_family_arm_m3_Hwi_resetVectors                                 
00000001  xdc_runtime_Startup__EXECFXN__C                                           
00000001  xdc_runtime_Startup__RESETFXN__C                                          
0000003d  EasyLink_configure                                                        
00000080  __ISA__                                                                   
00000092  __PLAT__                                                                  
000000b9  __TARG__                                                                  
000000de  __TRDR__                                                                  
00000400  __STACK_SIZE                                                              
00000bfd  xdc_runtime_System_doPrint__I                                             
00000f39  DisplaySharp_control                                                      
00001000  HEAPSIZE                                                                  
00001000  ti_sysbios_knl_Task_Object__PARAMS__C                                     
0000103c  ti_sysbios_knl_Mailbox_Object__PARAMS__C                                  
00001070  ti_sysbios_family_arm_m3_Hwi_Object__PARAMS__C                            
000010a0  ti_sysbios_hal_Hwi_Object__PARAMS__C                                      
000010cc  ti_sysbios_heaps_HeapMem_Module__FXNS__C                                  
000010f4  ti_sysbios_knl_Swi_Object__PARAMS__C                                      
0000111c  ti_sysbios_gates_GateHwi_Module__FXNS__C                                  
00001140  ti_sysbios_gates_GateMutex_Module__FXNS__C                                
00001164  ti_sysbios_heaps_HeapMem_Object__PARAMS__C                                
00001188  ti_sysbios_knl_Clock_Object__PARAMS__C                                    
000011ac  ti_sysbios_knl_Semaphore_Object__PARAMS__C                                
000011d0  ti_sysbios_family_arm_m3_Hwi_Object__DESC__C                              
000011f0  ti_sysbios_gates_GateHwi_Object__DESC__C                                  
00001210  ti_sysbios_gates_GateMutex_Object__DESC__C                                
00001230  ti_sysbios_hal_Hwi_Object__DESC__C                                        
00001250  ti_sysbios_heaps_HeapMem_Object__DESC__C                                  
00001270  ti_sysbios_knl_Clock_Object__DESC__C                                      
00001290  ti_sysbios_knl_Mailbox_Object__DESC__C                                    
000012b0  ti_sysbios_knl_Queue_Object__DESC__C                                      
000012d0  ti_sysbios_knl_Semaphore_Object__DESC__C                                  
000012f0  ti_sysbios_knl_Swi_Object__DESC__C                                        
00001310  ti_sysbios_knl_Task_Object__DESC__C                                       
00001330  ti_sysbios_gates_GateHwi_Object__PARAMS__C                                
00001348  ti_sysbios_gates_GateMutex_Object__PARAMS__C                              
00001360  ti_sysbios_knl_Queue_Object__PARAMS__C                                    
00001378  ti_sysbios_knl_Idle_funcList__C                                           
00001381  ClockP_getTimeout                                                         
00001384  ti_sysbios_family_arm_cc26xx_Timer_startupNeeded__C                       
00001388  ti_sysbios_family_arm_m3_Hwi_E_alreadyDefined__C                          
0000138c  ti_sysbios_family_arm_m3_Hwi_E_hwiLimitExceeded__C                        
00001390  ti_sysbios_family_arm_m3_Hwi_NUM_INTERRUPTS__C                            
00001394  ti_sysbios_family_arm_m3_Hwi_Object__count__C                             
00001398  ti_sysbios_family_arm_m3_Hwi_Object__table__C                             
0000139c  ti_sysbios_family_arm_m3_Hwi_ccr__C                                       
000013a0  ti_sysbios_family_arm_m3_Hwi_excHandlerFunc__C                            
000013a4  ti_sysbios_family_arm_m3_Hwi_nullIsrFunc__C                               
000013a8  ti_sysbios_family_arm_m3_Hwi_numSparseInterrupts__C                       
000013ac  ti_sysbios_family_arm_m3_Hwi_priGroup__C                                  
000013b0  ti_sysbios_family_arm_m3_TaskSupport_stackAlignment__C                    
000013b4  ti_sysbios_heaps_HeapMem_E_memory__C                                      
000013b8  ti_sysbios_heaps_HeapMem_Module__gateObj__C                               
000013bc  ti_sysbios_heaps_HeapMem_Object__count__C                                 
000013c0  ti_sysbios_heaps_HeapMem_Object__table__C                                 
000013c4  ti_sysbios_heaps_HeapMem_reqAlign__C                                      
000013c8  ti_sysbios_knl_Clock_serviceMargin__C                                     
000013cc  ti_sysbios_knl_Mailbox_Object__count__C                                   
000013d0  ti_sysbios_knl_Mailbox_Object__table__C                                   
000013d4  ti_sysbios_knl_Mailbox_maxTypeAlign__C                                    
000013d8  ti_sysbios_knl_Queue_Object__count__C                                     
000013dc  ti_sysbios_knl_Queue_Object__table__C                                     
000013e0  ti_sysbios_knl_Swi_Object__count__C                                       
000013e4  ti_sysbios_knl_Swi_Object__table__C                                       
000013e8  ti_sysbios_knl_Swi_numPriorities__C                                       
000013ec  ti_sysbios_knl_Task_Object__count__C                                      
000013f0  ti_sysbios_knl_Task_Object__table__C                                      
000013f4  ti_sysbios_knl_Task_allBlockedFunc__C                                     
000013f8  ti_sysbios_knl_Task_defaultStackHeap__C                                   
000013fc  ti_sysbios_knl_Task_defaultStackSize__C                                   
00001400  ti_sysbios_knl_Task_numConstructedTasks__C                                
00001405  DisplaySharp_init                                                         
00001406  ti_sysbios_family_arm_cc26xx_Timer_Module__id__C                          
00001408  ti_sysbios_family_arm_cc26xx_TimestampProvider_useClockTimer__C           
0000140a  ti_sysbios_family_arm_m3_Hwi_Module__id__C                                
0000140c  ti_sysbios_gates_GateHwi_Module__id__C                                    
0000140e  ti_sysbios_gates_GateMutex_Module__id__C                                  
00001410  ti_sysbios_heaps_HeapMem_Module__id__C                                    
00001412  ti_sysbios_knl_Task_initStackFlag__C                                      
00001414  ti_sysbios_knl_Clock_tickMode__C                                          
00001418  xdc_runtime_Startup_firstFxns__C                                          
00001420  xdc_runtime_Startup_lastFxns__C                                           
00001428  xdc_runtime_Assert_E_assertFailed__C                                      
0000142c  xdc_runtime_Error_E_memory__C                                             
00001430  xdc_runtime_Error_policyFxn__C                                            
00001434  xdc_runtime_IGateProvider_Interface__BASE__C                              
00001438  xdc_runtime_IHeap_Interface__BASE__C                                      
0000143c  xdc_runtime_IModule_Interface__BASE__C                                    
00001440  xdc_runtime_Main_Module__diagsEnabled__C                                  
00001444  xdc_runtime_Main_Module__diagsIncluded__C                                 
00001448  xdc_runtime_Main_Module__diagsMask__C                                     
0000144c  xdc_runtime_Memory_defaultHeapInstance__C                                 
00001450  xdc_runtime_Startup_execImpl__C                                           
00001454  xdc_runtime_Startup_maxPasses__C                                          
00001458  xdc_runtime_Startup_sfxnRts__C                                            
0000145c  xdc_runtime_Startup_sfxnTab__C                                            
00001460  xdc_runtime_Startup_startModsFxn__C                                       
00001464  xdc_runtime_SysCallback_abortFxn__C                                       
00001468  xdc_runtime_SysCallback_exitFxn__C                                        
0000146c  xdc_runtime_System_abortFxn__C                                            
00001470  xdc_runtime_System_exitFxn__C                                             
00001474  xdc_runtime_System_maxAtexitHandlers__C                                   
00001478  xdc_runtime_Text_charTab__C                                               
0000147c  xdc_runtime_Text_nameEmpty__C                                             
00001480  xdc_runtime_Text_nameStatic__C                                            
00001484  xdc_runtime_Text_nameUnknown__C                                           
00001488  xdc_runtime_Main_Module__id__C                                            
0000148a  xdc_runtime_Memory_Module__id__C                                          
0000148c  xdc_runtime_Text_charCnt__C                                               
0000148e  xdc_runtime_Text_isLoaded__C                                              
00001490  xdc_runtime_Error_policy__C                                               
00001494  ti_sysbios_rom_ROM_AONRTCChannelEnable                                    
00001498  ti_sysbios_rom_ROM_AONRTCCompareValueSet                                  
0000149c  ti_sysbios_rom_ROM_AONRTCCurrentCompareValueGet                           
000014a0  ti_sysbios_rom_ROM_AONRTCEventClear                                       
000014a4  ti_sysbios_rom_ROM_ti_sysbios_family_arm_cc26xx_Timer_getCount64__E       
000014a8  ti_sysbios_rom_ROM_ti_sysbios_family_arm_cc26xx_Timer_getCurrentTick__E   
000014ac  ti_sysbios_rom_ROM_ti_sysbios_family_arm_cc26xx_Timer_getMaxTicks__E      
000014b0  ti_sysbios_rom_ROM_ti_sysbios_family_arm_cc26xx_Timer_initDevice__I       
000014b4  ti_sysbios_rom_ROM_ti_sysbios_family_arm_cc26xx_Timer_setNextTick__E      
000014b8  ti_sysbios_rom_ROM_ti_sysbios_family_arm_cc26xx_Timer_setThreshold__I     
000014bc  ti_sysbios_rom_ROM_ti_sysbios_family_arm_cc26xx_Timer_start__E            
000014c0  ti_sysbios_rom_ROM_ti_sysbios_family_arm_cc26xx_TimestampProvider_get32__E
000014c4  ti_sysbios_rom_ROM_xdc_runtime_Startup_getState__I                        
000014c8  ti_sysbios_rom_ROM_xdc_runtime_System_SupportProxy_abort__E               
000014cc  ti_sysbios_rom_ROM_xdc_runtime_System_SupportProxy_exit__E                
000014d0  ti_sysbios_gates_GateMutex_Instance_State_sem__O                          
000014d4  ti_sysbios_knl_Clock_Module_State_clockQ__O                               
000014d8  ti_sysbios_knl_Mailbox_Instance_State_dataQue__O                          
000014dc  ti_sysbios_knl_Mailbox_Instance_State_dataSem__O                          
000014e0  ti_sysbios_knl_Mailbox_Instance_State_freeQue__O                          
000014e4  ti_sysbios_knl_Mailbox_Instance_State_freeSem__O                          
000014e8  ti_sysbios_knl_Semaphore_Instance_State_pendQ__O                          
000014ec  ti_sysbios_knl_Task_Module_State_inactiveQ__O                             
000014f1  PowerCC26XX_auxISR                                                        
00001b05  ull_advSchedule                                                           
00001e09  SPICC26XXDMA_transfer                                                     
000020fd  Graphics_drawString                                                       
0000293d  NOROM_SysCtrlSetRechargeBeforePowerDown                                   
00002b65  Power_sleep                                                               
00002d89  BleAdv_updateUrl                                                          
00002f95  RF_open                                                                   
00003191  __aeabi_uldivmod                                                          
00003385  PIN_init                                                                  
00003541  EasyLink_receiveAsync                                                     
000036f9  __aeabi_dsub                                                              
00003703  __aeabi_dadd                                                              
000038af  DisplayUartMin_clear                                                      
000038b1  BleAdv_init                                                               
00003da1  urfi_initAdvCmd                                                           
00003f3d  RF_scheduleCmd                                                            
00004265  PowerCC26XX_doCalibrate                                                   
000043f5  uble_setParameter                                                         
0000457d  EasyLink_transmit                                                         
000046f9  uble_processLLMsg                                                         
00004b49  xdc_runtime_System_printfExtend__I                                        
00004cb1  UARTCC26XX_open                                                           
00005721  DisplaySharp_open                                                         
00005859  NOROM_SetupAfterColdResetWakeupFromShutDownCfg3                           
00005e29  SPICC26XXDMA_open                                                         
00005f4d  UARTCC26XX_read                                                           
00006069  Power_init                                                                
00006291  UARTCC26XX_hwiIntFxn                                                      
000063a3  DisplayUartMin_clearLines                                                 
000063a5  NodeRadioTask_sendThermostatData                                          
000065ad  RF_close                                                                  
000066a9  UARTCC26XX_write                                                          
000067a5  __aeabi_dmul                                                              
000068a1  NOROM_SetupAfterColdResetWakeupFromShutDownCfg2                           
00006991  RF_pendCmd                                                                
00006a81  SPICC26XXDMA_transferCancel                                               
00006b69  ti_sysbios_knl_Event_pend__E                                              
00006c51  PowerCC26XX_standbyPolicy                                                 
00006e17  DisplayUartMin_init                                                       
00006e19  NOROM_RFCOverrideUpdate                                                   
00006fd1  RF_getInfo                                                                
00007189  EasyLink_enableRxAddrFilter                                               
000074e9  NOROM_RFCRfTrimRead                                                       
000075bd  RF_control                                                                
00007691  RF_postCmd                                                                
00007765  urfi_init                                                                 
00007a7d  EasyLink_setCtrl                                                          
00007b3d  RF_cancelCmd                                                              
00007bfd  DisplaySharp_vprintf                                                      
00007cbd  Power_releaseDependency                                                   
00007eed  Power_setDependency                                                       
00007fa1  NodeRadioTask_init                                                        
000080f9  NOROM_SetupTrimDevice                                                     
000080f9  ti_sysbios_family_arm_cc26xx_Boot_trimDevice                              
000082f1  NOROM_SetupAfterColdResetWakeupFromShutDownCfg1                           
00008439  NodeTask_init                                                             
00008579  __TI_auto_init                                                            
000086b5  __aeabi_memcpy                                                            
000086b5  __aeabi_memcpy4                                                           
000086b5  __aeabi_memcpy8                                                           
000086b5  memcpy                                                                    
000087ed  PIN_open                                                                  
0000891d  ti_sysbios_knl_Clock_workFuncDynamic__E                                   
000089b5  ull_init                                                                  
00008a4d  ull_advDoneCb                                                             
00008ae1  SPICC26XXDMA_control                                                      
00008c01  ugap_bcastInit                                                            
00008c91  EasyLink_init_multimode                                                   
00008d1d  UARTCC26XX_close                                                          
00008da9  UARTCC26XX_writeCancel                                                    
00008ec1  __aeabi_cdcmpeq                                                           
00008ec1  __aeabi_cdcmple                                                           
00008f47  __aeabi_cdrcmple                                                          
00008fcd  uble_checkAddr                                                            
00009053  Graphics_fillRectangle                                                    
0000915d  uble_stackInit                                                            
0000935d  __aeabi_memclr                                                            
0000935d  __aeabi_memclr4                                                           
0000935d  __aeabi_memclr8                                                           
0000935f  __aeabi_memset                                                            
0000935f  __aeabi_memset4                                                           
0000935f  __aeabi_memset8                                                           
00009365  memset                                                                    
00009451  getBleIeeeAddr                                                            
000094c9  uble_buildAndPostEvt                                                      
00009541  ull_advStop                                                               
00009631  NOROM_SetupSetVddrLevel                                                   
00009719  ti_sysbios_family_arm_cc26xx_Timer_start__E                               
0000978d  scifGetTaskStruct                                                         
000097fd  ti_sysbios_knl_Event_post__E                                              
0000986d  xdc_runtime_System_formatNum__I                                           
000098dd  PowerCC26XX_initiateCalibration                                           
00009949  uble_processGAPMsg                                                        
000099b5  NOROM_SetupGetTrimForAmpcompCtrl                                          
00009a1d  NOROM_SetupGetTrimForAnabypassValue1                                      
00009a85  NOROM_SysCtrlAdjustRechargeAfterPowerDown                                 
00009aed  NOROM_SysCtrl_DCDC_VoltageConditionalControl                              
00009b55  UARTCC26XX_readCancel                                                     
00009bbd  __TI_decompress_lzss                                                      
00009d5d  NOROM_OSCHF_AttemptToSwitchToXosc                                         
00009dc1  PIN_add                                                                   
00009eed  NOROM_OSCClockSourceSet                                                   
00009f4d  UARTCC26XX_control                                                        
0000a18d  ugap_bcastSetDuty                                                         
0000a1ed  urfi_getTxPowerVal                                                        
0000a24d  Display_doOpen                                                            
0000a2a9  PowerCC26XX_RCOSC_clockFunc                                               
0000a305  PowerCC26XX_calibrate                                                     
0000a361  UDMACC26XX_open                                                           
0000a419  ti_sysbios_heaps_HeapMem_initPrimary__I                                   
0000a475  xdc_runtime_Startup_getState__I                                           
0000a4d1  SPICC26XXDMA_close                                                        
0000a52d  PIN_remove                                                                
0000a791  NOROM_SetupSetCacheModeAccordingToCcfgSetting                             
0000a7e1  RF_getCurrentTime                                                         
0000a8d1  DisplaySharp_clearLines                                                   
0000a969  copy_in                                                                   
0000a9b5  srand                                                                     
0000a9cb  rand                                                                      
0000aa01  ull_advStart                                                              
0000aa4d  urfi_clientEventCb                                                        
0000aa99  DisplaySharp_close                                                        
0000aae3  DisplayUartMin_open                                                       
0000ab2d  Graphics_drawLineH                                                        
0000ab79  ClockP_construct                                                          
0000abc1  PIN_setOutputEnable                                                       
0000ace1  __aeabi_d2iz                                                              
0000ad29  uble_processMsg                                                           
0000ad71  ugb_advPostprocessCB                                                      
0000adb9  DisplayUartMin_vprintf                                                    
0000adff  __aeabi_idiv0                                                             
0000ae01  RF_releasePowerConstraint                                                 
0000ae45  RingBuf_put                                                               
0000aecd  ResetISR                                                                  
0000aecd  _c_int00                                                                  
0000af55  __aeabi_d2uiz                                                             
0000af99  PINCC26XX_getConfig                                                       
0000b019  SPI_init                                                                  
0000b059  SPI_open                                                                  
0000b0d9  UART_init                                                                 
0000b119  UART_open                                                                 
0000b199  __aeabi_uidiv                                                             
0000b199  __aeabi_uidivmod                                                          
0000b1d9  ti_sysbios_family_arm_cc26xx_Timer_setThreshold__I                        
0000b219  HwiP_construct                                                            
0000b257  RingBuf_get                                                               
0000b295  NOROM_ChipInfo_GetHwRevision                                              
0000b2d1  NOROM_OSC_HPOSCRelativeFrequencyOffsetGet                                 
0000b30d  NOROM_RFCSynthPowerDown                                                   
0000b349  PowerCC26XX_isStableXOSC_HF                                               
0000b385  SwiP_construct                                                            
0000b439  ti_sysbios_family_arm_m3_Hwi_construct2__E                                
0000b475  SemaphoreP_construct                                                      
0000b4af  ti_sysbios_BIOS_linkedWithIncorrectBootLibrary__E                         
0000b4b1  PIN_setOutputValue                                                        
0000b4e9  UARTCC26XX_swiIntFxn                                                      
0000b559  __aeabi_f2d                                                               
0000b591  ugap_clockHandler                                                         
0000b601  UDMACC26XX_close                                                          
0000b637  strncpy                                                                   
0000b66d  BleAdv_setAdvertiserType                                                  
0000b6a1  NOROM_OSCHF_SwitchToRcOscTurnOffXosc                                      
0000b6d5  PIN_setConfig                                                             
0000b709  PIN_setInterrupt                                                          
0000b73d  Power_releaseConstraint                                                   
0000b7d9  ti_sysbios_family_arm_cc26xx_Timer_initDevice__I                          
0000b80d  ti_sysbios_knl_Swi_setPri__E                                              
0000b841  ugap_bcastStart                                                           
0000b875  ull_clockHandler                                                          
0000b8a9  ti_sysbios_family_arm_cc26xx_Timer_setNextTick__E                         
0000b8db  ti_sysbios_BIOS_nullFunc__I                                               
0000b8dd  NOROM_ChipInfo_GetChipType                                                
0000b90d  NOROM_SetupSetAonRtcSubSecInc                                             
0000b93d  NodeTask_advStatsCB                                                       
0000b96d  Power_setConstraint                                                       
0000b99d  RF_runCmd                                                                 
0000b9fd  ti_sysbios_BIOS_atExitFunc__I                                             
0000ba2d  ti_sysbios_BIOS_startFunc__I                                              
0000ba5d  ti_sysbios_family_arm_cc26xx_Timer_getCurrentTick__E                      
0000ba8d  uble_getPublicAddr                                                        
0000baeb  __aeabi_i2d                                                               
0000bb19  malloc                                                                    
0000bb47  DisplaySharp_clear                                                        
0000bb73  ti_sysbios_knl_Clock_triggerFunc__I                                       
0000bb75  NOROM_DDI32RegWrite                                                       
0000bba1  NOROM_OSCClockSourceGet                                                   
0000bbcd  NOROM_RFCCPEPatchReset                                                    
0000bbf9  NOROM_SetupGetTrimForRadcExtCfg                                           
0000bc25  PINCC26XX_setMux                                                          
0000bc51  SemaphoreP_constructBinary                                                
0000bc7d  SemaphoreP_createBinary                                                   
0000bd01  ti_sysbios_knl_Clock_getTicksUntilInterrupt__E                            
0000bd2d  ti_sysbios_knl_Event_construct                                            
0000bd59  ti_sysbios_knl_Event_pendTimeout__I                                       
0000bd85  Display_doPrintf                                                          
0000bdaf  ti_sysbios_knl_Clock_getTimeout__E                                        
0000bdd9  xdc_runtime_System_putchar__I                                             
0000be03  ti_sysbios_rom_cortexm_cc13xx_CC13xx_badRomRevision__E                    
0000be05  Display_doInit                                                            
0000be2d  NOROM_AONBatMonTemperatureGetDegC                                         
0000be55  Power_registerNotify                                                      
0000bea5  SafeHapiVoid                                                              
0000becd  rfSwitchCallback                                                          
0000bef5  strncmp                                                                   
0000bf1d  ugb_advPrepareCB                                                          
0000bf45  NOROM_RFCDoorbellSendTo                                                   
0000bf69  SceAdc_setReportInterval                                                  
0000bfb1  ti_sysbios_BIOS_registerRTSLock__I                                        
0000bfd5  ti_sysbios_BIOS_removeRTSLock__I                                          
0000bff9  ti_sysbios_family_arm_cc26xx_Timer_getMaxTicks__E                         
0000c01d  Graphics_initContext                                                      
0000c03f  List_put                                                                  
0000c061  NOROM_RFCAdi3VcoLdoVoltageMode                                            
0000c081  NOROM_SetupGetTrimForXoscHfCtl                                            
0000c0a1  PowerCC26XX_schedulerDisable                                              
0000c0c1  PowerCC26XX_schedulerRestore                                              
0000c0e1  Power_unregisterNotify                                                    
0000c141  ti_sysbios_BIOS_rtsLock__I                                                
0000c161  ti_sysbios_family_arm_cc26xx_Timer_dynamicStub__E                         
0000c181  ti_sysbios_knl_Clock_stop__E                                              
0000c1a1  ti_sysbios_knl_Event_checkEvents__I                                       
0000c1c1  ugap_bcastStop                                                            
0000c1e1  ull_advRegisterCB                                                         
0000c221  xdc_runtime_Error_policyMin__E                                            
0000c241  PIN_close                                                                 
0000c25f  Power_getTransitionLatency                                                
0000c27d  NOROM_ChipInfo_GetChipFamily                                              
0000c299  NOROM_SetupGetTrimForAmpcompTh2                                           
0000c2b5  NOROM_SetupGetTrimForRcOscLfRtuneCtuneTrim                                
0000c309  RF_setPowerConstraint                                                     
0000c421  ti_sysbios_knl_Swi_construct2__E                                          
0000c457  free                                                                      
0000c471  main                                                                      
0000c48b  xdc_runtime_SysCallback_defaultAbort                                      
0000c48d  BleAdv_Params_init                                                        
0000c4a5  CC1350_LAUNCHXL_initGeneral                                               
0000c4bd  EasyLink_Params_init                                                      
0000c4d5  NOROM_AONRTCCurrentCompareValueGet                                        
0000c4ed  NOROM_ChipInfo_GetPackageType                                             
0000c505  NOROM_OSCHF_TurnOnXosc                                                    
0000c51d  NOROM_RFCCpeIntGetAndClear                                                
0000c535  NOROM_RFCHWIntGetAndClear                                                 
0000c54d  NOROM_SetupGetTrimForAdcShModeEn                                          
0000c565  NOROM_SetupGetTrimForAdcShVbufEn                                          
0000c57d  NOROM_SetupGetTrimForAmpcompTh1                                           
0000c595  NOROM_SetupGetTrimForDblrLoopFilterResetVoltage                           
0000c5ad  NOROM_SetupGetTrimForRcOscLfIBiasTrim                                     
0000c5c5  NOROM_SetupGetTrimForXoscLfRegulatorAndCmirrwrRatio                       
0000c5dd  PIN_getConfig                                                             
0000c5f5  Power_idleFunc                                                            
0000c625  SharpGrLib_init                                                           
0000c63d  UARTCC26XX_init                                                           
0000c655  UART_Params_init                                                          
0000c685  _args_main                                                                
0000c69d  __aeabi_lmul                                                              
0000c6cd  ti_sysbios_BIOS_rtsUnlock__I                                              
0000c6e5  ti_sysbios_knl_Swi_or__E                                                  
0000c6fd  ti_sysbios_rom_cortexm_cc13xx_CC13xx_checkRevision__E                     
0000c715  uble_registerAntSwitchCB                                                  
0000c72d  xdc_runtime_Error_init__E                                                 
0000c745  DisplayUartMin_close                                                      
0000c75b  Graphics_drawHorizontalLineOnDisplay                                      
0000c771  List_remove                                                               
0000c787  NOROM_ThisLibraryIsFor_CC13x0_HwRev20AndLater_HaltIfViolated              
0000c79d  ti_sysbios_BIOS_exitFunc__I                                               
0000c88d  ClockP_usleep                                                             
0000c8a1  NOROM_AONRTCCurrent64BitValueGet                                          
0000c8b5  PIN_getInputValue                                                         
0000c8c9  PIN_getOutputValue                                                        
0000c8dd  RF_Params_init                                                            
0000c8f1  SPI_Params_init                                                           
0000c919  _register_unlock                                                          
0000c91f  _register_lock                                                            
0000c927  _nop                                                                      
0000c92d  strlen                                                                    
0000c941  ti_sysbios_knl_Clock_doTick__I                                            
0000c955  ti_sysbios_knl_Event_Instance_init__E                                     
0000c97b  RingBuf_construct                                                         
0000c98d  SemaphoreP_pend                                                           
0000c99f  xdc_runtime_Startup_exec__I                                               
0000c9b1  ClockP_isActive                                                           
0000c9c1  HwiP_Params_init                                                          
0000c9d1  NOROM_RFCRfTrimSet                                                        
0000c9e1  NOROM_SetupGetTrimForXoscHfFastStart                                      
0000c9f1  NOROM_SetupGetTrimForXoscHfIbiastherm                                     
0000ca01  PINCC26XX_getPinCount                                                     
0000ca11  SwiP_Params_init                                                          
0000caa1  ti_sysbios_family_arm_m3_Hwi_post__E                                      
0000caa1  ti_sysbios_hal_Hwi_HwiProxy_post__E                                       
0000caa1  ti_sysbios_hal_Hwi_post__E                                                
0000cac1  xdc_runtime_SysCallback_putch__E                                          
0000cac1  xdc_runtime_System_SupportProxy_putch__E                                  
0000cad1  xdc_runtime_SysCallback_ready__E                                          
0000cad1  xdc_runtime_System_SupportProxy_ready__E                                  
0000cae1  xdc_runtime_System_vsnprintf__E                                           
0000caf1  Graphics_drawPixelOnDisplay                                               
0000caff  Graphics_setBackgroundColor                                               
0000cb0d  Graphics_setForegroundColor                                               
0000cb1b  NOROM_VIMSModeGet                                                         
0000cb29  SPICC26XXDMA_init                                                         
0000cb37  __TI_decompress_none                                                      
0000cb45  ti_sysbios_family_arm_cc26xx_TimestampProvider_get32__E                   
0000cb45  xdc_runtime_Timestamp_SupportProxy_get32__E__mangled__                    
0000cb53  BleAdv_startAdvertising                                                   
0000cb5f  Display_doClear                                                           
0000cb6b  xdc_runtime_SysCallback_defaultExit                                       
0000cb79  List_empty                                                                
0000cb85  NOROM_CPUcpsid                                                            
0000cb91  NOROM_CPUcpsie                                                            
0000cb9d  NOROM_OSC_HPOSCRelativeFrequencyOffsetToRFCoreFormatConvert               
0000cba9  PIN_registerIntCb                                                         
0000cbb5  Power_getConstraintMask                                                   
0000cbc1  Power_getDependencyCount                                                  
0000cbcd  SemaphoreP_delete                                                         
0000cbfd  __TI_zero_init                                                            
0000cc09  nodeRadioTask_getNodeAddr                                                 
0000cc45  ti_sysbios_knl_Event_Params__init__S                                      
0000cc81  ti_sysbios_knl_Swi_getTrigger__E                                          
0000cc8d  xdc_runtime_Startup_reset__I                                              
0000cc99  xdc_runtime_Startup_rtsDone__E                                            
0000cca5  BleAdv_stopAdvertising                                                    
0000ccaf  Graphics_clearDisplay                                                     
0000ccb9  Graphics_clearDisplayOnDisplay                                            
0000ccc3  Graphics_fillRectangleOnDisplay                                           
0000cccd  Graphics_flushOnDisplay                                                   
0000ccd7  Graphics_translateColorOnDisplay                                          
0000cce1  SPI_close                                                                 
0000cceb  SPI_transfer                                                              
0000ccff  UART_close                                                                
0000cd09  UART_control                                                              
0000cd13  UART_write                                                                
0000cd1d  UDMACC26XX_hwiIntFxn                                                      
0000cd27  xdc_runtime_SysCallback_defaultPutch                                      
0000cd29  DisplaySharp_getType                                                      
0000cd31  RF_flushCmd                                                               
0000cd41  SemaphoreP_Params_init                                                    
0000cd89  ClockP_Params_init                                                        
0000cd8f  DisplayUartMin_control                                                    
0000cd95  DisplayUartMin_getType                                                    
0000cd9b  Display_doParamsInit                                                      
0000cda1  Graphics_flushBuffer                                                      
0000cda7  NOROM_CPUdelay                                                            
0000cdad  UARTCC26XX_readPolling                                                    
0000cdb3  UARTCC26XX_writePolling                                                   
0000cdbf  ti_sysbios_family_arm_m3_Hwi_setFunc__E                                   
0000cdc5  ClockP_destruct                                                           
0000cdc9  ClockP_getCpuFreq                                                         
0000cdcd  ClockP_setTimeout                                                         
0000cdd1  ClockP_start                                                              
0000cdd5  ClockP_stop                                                               
0000cdd9  Graphics_setFont                                                          
0000cddd  HwiP_destruct                                                             
0000cde1  HwiP_disable                                                              
0000cde5  HwiP_enableInterrupt                                                      
0000cde9  HwiP_post                                                                 
0000cded  HwiP_setFunc                                                              
0000cdf1  HwiP_setPriority                                                          
0000cdf5  List_head                                                                 
0000cdf9  List_next                                                                 
0000cdfd  PowerCC26XX_switchXOSC_HF                                                 
0000ce05  RF_runImmediateCmd                                                        
0000ce09  SemaphoreP_destruct                                                       
0000ce0d  SemaphoreP_post                                                           
0000ce11  SwiP_destruct                                                             
0000ce15  SwiP_disable                                                              
0000ce19  SwiP_getTrigger                                                           
0000ce1d  SwiP_or                                                                   
0000ce21  SwiP_post                                                                 
0000ce25  SwiP_setPriority                                                          
0000ce29  SystemP_vsnprintf                                                         
0000ce31  ti_sysbios_family_arm_cc26xx_Timer_getCount64__E                          
0000ce35  ti_sysbios_knl_Clock_isActive__E                                          
0000ce39  xdc_runtime_SysCallback_defaultReady                                      
00011c40  g_sFontFixed6x8                                                           
00011d8e  Display_defaultParams                                                     
00011d8f  ubFeModeBias                                                              
00011df6  resourceDB                                                                
00011e42  xdc_runtime_Text_charTab__A                                               
00011ecc  spiCC26XXDMAHWAttrs                                                       
00011f44  BoardGpioInitTable                                                        
00011f78  UARTCC26XX_fxnTable                                                       
00011fa0  ubTxPowerVal                                                              
00011fc8  UART_defaultParams                                                        
00011fec  xdc_runtime_Startup_sfxnTab__A                                            
00012010  DisplaySharp_fxnTable                                                     
00012030  DisplayUartMin_fxnTable                                                   
00012050  SPI_defaultParams                                                         
00012070  g_sharpFxns                                                               
00012090  ti_sysbios_knl_Event_Object__DESC__C                                      
000120b0  uartCC26XXHWAttrs                                                         
00012120  Display_config                                                            
00012138  PowerCC26XX_config                                                        
00012150  SPICC26XXDMA_fxnTable                                                     
00012168  SPI_config                                                                
00012198  ti_sysbios_knl_Event_Object__PARAMS__C                                    
000121b0  displayUartHWAttrs                                                        
000121c4  xdc_runtime_Startup_sfxnRts__A                                            
000121e8  displaySharpHWattrs                                                       
000121f8  ubRfMode                                                                  
00012214  UART_config                                                               
00012220  xdc_runtime_Startup_firstFxns__A                                          
0001222c  ADCBuf_count                                                              
0001222d  ADC_count                                                                 
0001222e  Display_count                                                             
0001222f  I2C_count                                                                 
00012230  NVS_count                                                                 
00012231  PWM_count                                                                 
00012232  SPI_count                                                                 
00012233  UART_count                                                                
00012234  Watchdog_count                                                            
00012238  PINCC26XX_hwAttrs                                                         
00012240  UDMACC26XX_config                                                         
00012250  udmaHWAttrs                                                               
00012258  ubTxPowerTable                                                            
0001225d  RFCC26XX_hwAttrs                                                          
00012264  ti_sysbios_family_arm_m3_Hwi_swiDisable__C                                
00012268  ti_sysbios_family_arm_m3_Hwi_swiRestoreHwi__C                             
0001226c  ti_sysbios_heaps_HeapMem_primaryHeapBaseAddr__C                           
00012270  ti_sysbios_heaps_HeapMem_primaryHeapEndAddr__C                            
00012274  ti_sysbios_knl_Clock_tickPeriod__C                                        
00012278  ti_sysbios_knl_Clock_triggerClock__C                                      
0001227c  ti_sysbios_knl_Event_Instance_State_pendQ__O                              
00012280  ti_sysbios_knl_Idle_funcList__A                                           
00012284  xdc_runtime_SysCallback_putchFxn__C                                       
00012288  xdc_runtime_SysCallback_readyFxn__C                                       
0001228c  xdc_runtime_System_extendFxn__C                                           
00012290  __TI_static_base__                                                        
0001272c  __TI_Handler_Table_Base                                                   
00012738  __TI_Handler_Table_Limit                                                  
00012790  __TI_CINIT_Base                                                           
00012810  __TI_CINIT_Limit                                                          
0001ffa8  __ccfg                                                                    
1001a001  ti_sysbios_knl_Semaphore_pend__E                                          
1001a0cd  ti_sysbios_knl_Mailbox_Instance_init__E                                   
1001a195  ti_sysbios_heaps_HeapMem_alloc__E                                         
1001a259  ti_sysbios_knl_Task_Instance_init__E                                      
1001a315  ti_sysbios_family_arm_m3_Hwi_postInit__I                                  
1001a3c5  ti_sysbios_family_arm_m3_Hwi_Instance_init__E                             
1001a465  ti_sysbios_family_arm_cc26xx_Timer_periodicStub__E                        
1001a4f9  ti_sysbios_knl_Task_Instance_finalize__E                                  
1001a58d  ti_sysbios_knl_Mailbox_post__E                                            
1001a611  ti_sysbios_knl_Task_postInit__I                                           
1001a695  ti_sysbios_family_arm_m3_Hwi_initNVIC__E                                  
1001a715  ti_sysbios_knl_Clock_startI__E                                            
1001a791  ti_sysbios_heaps_HeapMem_free__E                                          
1001a809  ti_sysbios_knl_Clock_walkQueueDynamic__E                                  
1001a881  ti_sysbios_knl_Clock_workFunc__E                                          
1001a8f9  ti_sysbios_knl_Mailbox_Instance_finalize__E                               
1001a969  ti_sysbios_knl_Mailbox_pend__E                                            
1001a9d9  ti_sysbios_knl_Task_sleep__E                                              
1001aa49  ti_sysbios_family_arm_m3_Hwi_dispatchC__I                                 
1001aab1  ti_sysbios_family_arm_m3_Hwi_Object__create__S                            
1001ab15  ti_sysbios_family_arm_m3_Hwi_create                                       
1001ab79  ti_sysbios_hal_Hwi_create                                                 
1001abdd  ti_sysbios_knl_Mailbox_create                                             
1001ac41  ti_sysbios_knl_Semaphore_post__E                                          
1001aca5  ti_sysbios_knl_Swi_Instance_init__E                                       
1001ad05  ti_sysbios_knl_Swi_create                                                 
1001ad61  ti_sysbios_knl_Swi_restoreHwi__E                                          
1001adbd  ti_sysbios_knl_Task_Module_startup__E                                     
1001ae19  ti_sysbios_knl_Task_create                                                
1001ae75  ti_sysbios_knl_Task_startCore__E                                          
1001aed1  ti_sysbios_family_arm_m3_Hwi_Instance_finalize__E                         
1001af29  ti_sysbios_family_arm_m3_Hwi_construct                                    
1001af81  ti_sysbios_knl_Mailbox_construct                                          
1001afd9  ti_sysbios_knl_Swi_run__I                                                 
1001b031  ti_sysbios_knl_Swi_schedule__I                                            
1001b085  ti_sysbios_knl_Swi_construct                                              
1001b0d5  ti_sysbios_knl_Swi_runLoop__I                                             
1001b125  ti_sysbios_knl_Task_construct                                             
1001b175  ti_sysbios_knl_Task_schedule__I                                           
1001b1c1  ti_sysbios_family_arm_m3_Hwi_Module_startup__E                            
1001b209  ti_sysbios_heaps_HeapMem_getStats__E                                      
1001b251  ti_sysbios_family_arm_m3_Hwi_disableInterrupt__E                          
1001b251  ti_sysbios_hal_Hwi_HwiProxy_disableInterrupt__E__mangled__                
1001b295  ti_sysbios_family_arm_m3_Hwi_enableInterrupt__E                           
1001b295  ti_sysbios_hal_Hwi_HwiProxy_enableInterrupt__E__mangled__                 
1001b2d9  ti_sysbios_knl_Mailbox_Module_startup__E                                  
1001b31d  ti_sysbios_knl_Swi_post__E                                                
1001b361  ti_sysbios_knl_Task_allBlockedFunction__I                                 
1001b3a5  ti_sysbios_knl_Task_yield__E                                              
1001b3e9  ti_sysbios_knl_Clock_create                                               
1001b425  ti_sysbios_knl_Task_exit__E                                               
1001b45f  ti_sysbios_gates_GateHwi_Instance_init__E                                 
1001b461  ti_sysbios_family_arm_m3_Hwi_getStackInfo__E                              
1001b461  ti_sysbios_hal_Hwi_HwiProxy_getStackInfo__E__mangled__                    
1001b499  ti_sysbios_family_arm_m3_TaskSupport_start__E                             
1001b499  ti_sysbios_knl_Task_SupportProxy_start__E__mangled__                      
1001b4d1  ti_sysbios_heaps_HeapMem_Instance_init__E                                 
1001b509  ti_sysbios_knl_Clock_Instance_init__E                                     
1001b541  ti_sysbios_heaps_HeapMem_init__I                                          
1001b575  ti_sysbios_knl_Clock_construct                                            
1001b5a9  ti_sysbios_knl_Semaphore_create                                           
1001b5dd  SwiP_restore                                                              
1001b5dd  ti_sysbios_knl_Swi_restore__E                                             
1001b611  ti_sysbios_knl_Task_blockI__E                                             
1001b645  ti_sysbios_gates_GateMutex_Object__create__S                              
1001b675  ti_sysbios_gates_GateMutex_create                                         
1001b6a5  ti_sysbios_gates_GateMutex_enter__E                                       
1001b6d5  ClockP_getSystemTicks                                                     
1001b6d5  ti_sysbios_knl_Clock_getTicks__E                                          
1001b705  ti_sysbios_knl_Semaphore_construct                                        
1001b735  ti_sysbios_knl_Task_processVitalTaskFlag__I                               
1001b765  ti_sysbios_family_arm_cc26xx_Timer_postInit__I                            
1001b791  ti_sysbios_family_arm_cc26xx_Timer_startup__E                             
1001b791  ti_sysbios_knl_Clock_TimerProxy_startup__E                                
1001b791  ti_sysbios_knl_Clock_TimerProxy_startup__E__mangled__                     
1001b7bd  ti_sysbios_family_arm_m3_Hwi_Object__get__S                               
1001b7e9  ti_sysbios_gates_GateMutex_construct                                      
1001b815  ti_sysbios_hal_Hwi_initStack                                              
1001b841  ti_sysbios_heaps_HeapMem_Object__create__S                                
1001b86d  ti_sysbios_heaps_HeapMem_Object__get__S                                   
1001b899  ti_sysbios_knl_Mailbox_Object__get__S                                     
1001b8c5  ti_sysbios_knl_Mailbox_postInit__I                                        
1001b8f1  ti_sysbios_knl_Queue_construct                                            
1001b91d  ti_sysbios_knl_Queue_create                                               
1001b949  ti_sysbios_knl_Semaphore_pendTimeout__I                                   
1001b975  ti_sysbios_knl_Swi_Object__get__S                                         
1001b9a1  ti_sysbios_knl_Task_unblockI__E                                           
1001b9cd  ti_sysbios_family_arm_cc26xx_TimestampProvider_get64__E                   
1001b9cd  xdc_runtime_Timestamp_SupportProxy_get64__E                               
1001b9cd  xdc_runtime_Timestamp_SupportProxy_get64__E__mangled__                    
1001b9cd  xdc_runtime_Timestamp_get64__E                                            
1001b9cd  xdc_runtime_Timestamp_get64__E                                            
1001b9f5  ti_sysbios_hal_Hwi_Instance_init__E                                       
1001ba1d  ti_sysbios_knl_Clock_addI__E                                              
1001ba45  ti_sysbios_knl_Task_restore__E                                            
1001ba6d  ti_sysbios_family_arm_cc26xx_Timer_Module_startup__E                      
1001ba91  ti_sysbios_gates_GateHwi_Object__create__S                                
1001bab5  ti_sysbios_BIOS_RtsGateProxy_Object__delete__S                            
1001bab5  ti_sysbios_gates_GateMutex_Object__delete__S                              
1001bab5  ti_sysbios_heaps_HeapMem_Module_GateProxy_Object__delete__S               
1001bad9  ti_sysbios_knl_Clock_Object__delete__S                                    
1001bafd  ti_sysbios_knl_Semaphore_Instance_init__E                                 
1001bb21  ti_sysbios_knl_Semaphore_Object__delete__S                                
1001bb45  ti_sysbios_family_arm_cc26xx_Timer_Module__startupDone__S                 
1001bb45  ti_sysbios_knl_Clock_TimerProxy_Module__startupDone__S__mangled__         
1001bb65  ti_sysbios_family_arm_cc26xx_TimestampProvider_Module_startup__E          
1001bb85  ti_sysbios_family_arm_m3_Hwi_Module__startupDone__S                       
1001bb85  ti_sysbios_hal_Hwi_HwiProxy_Module__startupDone__S__mangled__             
1001bba5  ti_sysbios_family_arm_m3_Hwi_Object__delete__S                            
1001bba5  ti_sysbios_hal_Hwi_HwiProxy_Object__delete__S                             
1001bbc5  ti_sysbios_family_arm_m3_Hwi_excHandler__I                                
1001bbe5  ti_sysbios_gates_GateHwi_Handle__label__S                                 
1001bbe5  xdc_runtime_Main_Module_GateProxy_Handle__label__S                        
1001bbe5  xdc_runtime_System_Module_GateProxy_Handle__label__S                      
1001bbe5  xdc_runtime_System_Module_GateProxy_Handle__label__S__mangled__           
1001bc05  ti_sysbios_gates_GateHwi_Object__delete__S                                
1001bc05  xdc_runtime_System_Module_GateProxy_Object__delete__S                     
1001bc25  ti_sysbios_BIOS_RtsGateProxy_Handle__label__S                             
1001bc25  ti_sysbios_BIOS_RtsGateProxy_Handle__label__S__mangled__                  
1001bc25  ti_sysbios_gates_GateMutex_Handle__label__S                               
1001bc25  ti_sysbios_heaps_HeapMem_Module_GateProxy_Handle__label__S                
1001bc25  ti_sysbios_heaps_HeapMem_Module_GateProxy_Handle__label__S__mangled__     
1001bc45  ti_sysbios_gates_GateMutex_Object__destruct__S                            
1001bc65  ti_sysbios_hal_Hwi_Object__delete__S                                      
1001bc85  ti_sysbios_heaps_HeapMem_Handle__label__S                                 
1001bc85  xdc_runtime_Memory_HeapProxy_Handle__label__S                             
1001bc85  xdc_runtime_Memory_HeapProxy_Handle__label__S__mangled__                  
1001bca5  ti_sysbios_heaps_HeapMem_Object__delete__S                                
1001bca5  xdc_runtime_Memory_HeapProxy_Object__delete__S                            
1001bcc5  ti_sysbios_knl_Clock_Module_startup__E                                    
1001bce5  ti_sysbios_knl_Clock_Object__destruct__S                                  
1001bd05  ti_sysbios_knl_Idle_run__E                                                
1001bd25  ti_sysbios_knl_Mailbox_Object__delete__S                                  
1001bd45  ti_sysbios_knl_Queue_Object__delete__S                                    
1001bd65  ti_sysbios_knl_Queue_Object__get__S                                       
1001bd85  ti_sysbios_knl_Semaphore_Object__destruct__S                              
1001bda5  ti_sysbios_knl_Swi_Object__delete__S                                      
1001bdc5  ti_sysbios_knl_Task_Object__delete__S                                     
1001bde5  ti_sysbios_knl_Task_Object__get__S                                        
1001be05  ti_sysbios_knl_Task_enter__I                                              
1001be25  ti_sysbios_knl_Task_restoreHwi__E                                         
1001be45  ti_sysbios_hal_Hwi_HwiProxy_create                                        
1001be63  ti_sysbios_knl_Clock_logTick__E                                           
1001be65  ti_sysbios_family_arm_m3_Hwi_Object__destruct__S                          
1001be81  ti_sysbios_family_arm_m3_Hwi_setPriority__E                               
1001be9d  ti_sysbios_gates_GateMutex_Instance_init__E                               
1001beb9  ti_sysbios_knl_Clock_scheduleNextTick__E                                  
1001bed5  ti_sysbios_knl_Mailbox_Object__destruct__S                                
1001bef1  ti_sysbios_knl_Queue_Object__destruct__S                                  
1001bf0d  ti_sysbios_knl_Queue_get__E                                               
1001bf29  ti_sysbios_knl_Queue_put__E                                               
1001bf45  ti_sysbios_knl_Swi_Object__destruct__S                                    
1001bf61  ti_sysbios_knl_Task_Object__destruct__S                                   
1001bf7d  ti_sysbios_knl_Task_sleepTimeout__I                                       
1001bf97  ti_sysbios_knl_Swi_Instance_finalize__E                                   
1001bf99  ti_sysbios_gates_GateMutex_leave__E                                       
1001bfb1  ti_sysbios_knl_Task_unblock__E                                            
1001bfc9  ti_sysbios_knl_Clock_Instance_finalize__E                                 
1001bfdf  ti_sysbios_knl_Clock_start__E                                             
1001bff5  ti_sysbios_BIOS_getCpuFreq__E                                             
1001c009  ti_sysbios_family_arm_m3_Hwi_switchFromBootStack__E                       
1001c009  ti_sysbios_hal_Hwi_HwiProxy_switchFromBootStack__E__mangled__             
1001c01d  ti_sysbios_hal_Hwi_Module_startup__E                                      
1001c031  ti_sysbios_BIOS_exit__E                                                   
1001c041  ti_sysbios_BIOS_setThreadType__E                                          
1001c051  ti_sysbios_BIOS_start__E                                                  
1001c061  ti_sysbios_family_arm_m3_Hwi_plug__E                                      
1001c071  ti_sysbios_gates_GateMutex_Instance_finalize__E                           
1001c081  ti_sysbios_hal_Hwi_HwiProxy_Object__create__S                             
1001c091  ti_sysbios_knl_Clock_TimerProxy_getCurrentTick__E                         
1001c0a1  ti_sysbios_knl_Clock_TimerProxy_getMaxTicks__E                            
1001c0b1  ti_sysbios_knl_Clock_TimerProxy_setNextTick__E                            
1001c0c1  ti_sysbios_knl_Semaphore_Instance_finalize__E                             
1001c0d1  ti_sysbios_knl_Swi_disable__E                                             
1001c0e1  ti_sysbios_knl_Swi_enabled__E                                             
1001c0f1  ti_sysbios_knl_Task_disable__E                                            
1001c101  ti_sysbios_heaps_HeapMem_restore__E                                       
1001c10f  ti_sysbios_knl_Queue_empty__E                                             
1001c11d  ti_sysbios_knl_Queue_remove__E                                            
1001c12b  ti_sysbios_family_arm_cc26xx_TimestampProvider_getFreq__E                 
1001c12b  xdc_runtime_Timestamp_SupportProxy_getFreq__E                             
1001c12b  xdc_runtime_Timestamp_SupportProxy_getFreq__E__mangled__                  
1001c12b  xdc_runtime_Timestamp_getFreq__E                                          
1001c12b  xdc_runtime_Timestamp_getFreq__E                                          
1001c139  ti_sysbios_family_arm_m3_Hwi_Params__init__S                              
1001c139  ti_sysbios_hal_Hwi_HwiProxy_Params__init__S                               
1001c139  ti_sysbios_hal_Hwi_HwiProxy_Params__init__S__mangled__                    
1001c145  ti_sysbios_family_arm_m3_Hwi_disableFxn__E                                
1001c151  ti_sysbios_family_arm_m3_Hwi_enableFxn__E                                 
1001c15d  ti_sysbios_family_arm_m3_TaskSupport_getStackAlignment__E                 
1001c15d  ti_sysbios_knl_Task_SupportProxy_getStackAlignment__E__mangled__          
1001c169  ti_sysbios_gates_GateHwi_enter__E                                         
1001c175  ti_sysbios_BIOS_RtsGateProxy_Params__init__S                              
1001c175  ti_sysbios_BIOS_RtsGateProxy_Params__init__S__mangled__                   
1001c175  ti_sysbios_gates_GateMutex_Params__init__S                                
1001c175  ti_sysbios_heaps_HeapMem_Module_GateProxy_Params__init__S                 
1001c175  ti_sysbios_heaps_HeapMem_Module_GateProxy_Params__init__S__mangled__      
1001c181  ti_sysbios_knl_Clock_Params__init__S                                      
1001c18d  ti_sysbios_knl_Clock_getTimerHandle__E                                    
1001c199  ti_sysbios_knl_Mailbox_Params__init__S                                    
1001c1a5  ti_sysbios_knl_Queue_dequeue__E                                           
1001c1b1  ti_sysbios_knl_Queue_enqueue__E                                           
1001c1bd  ti_sysbios_knl_Semaphore_Params__init__S                                  
1001c1c9  ti_sysbios_knl_Swi_Params__init__S                                        
1001c1d5  ti_sysbios_knl_Task_Params__init__S                                       
1001c1e1  ti_sysbios_knl_Task_self__E                                               
1001c1ed  ti_sysbios_hal_Hwi_Instance_finalize__E                                   
1001c1f7  ti_sysbios_family_arm_m3_Hwi_doSwiRestore__I                              
1001c1ff  ti_sysbios_family_arm_m3_Hwi_startup__E                                   
1001c1ff  ti_sysbios_hal_Hwi_HwiProxy_startup__E__mangled__                         
1001c207  ti_sysbios_knl_Idle_loop__E                                               
1001c20f  ti_sysbios_family_arm_m3_Hwi_doTaskRestore__I                             
1001c215  HwiP_restore                                                              
1001c215  ti_sysbios_family_arm_m3_Hwi_restoreFxn__E                                
1001c21b  ti_sysbios_gates_GateHwi_leave__E                                         
1001c227  ti_sysbios_knl_Queue_Instance_init__E                                     
1001c22d  ti_sysbios_knl_Queue_elemClear__E                                         
1001c233  ti_sysbios_knl_Swi_Module_startup__E                                      
1001c239  ti_sysbios_knl_Swi_startup__E                                             
1001c23f  ti_sysbios_knl_Task_enable__E                                             
1001c245  ti_sysbios_BIOS_RtsGateProxy_enter__E                                     
1001c249  ti_sysbios_BIOS_RtsGateProxy_leave__E                                     
1001c24d  ti_sysbios_family_arm_cc26xx_Timer_getExpiredTicks__E                     
1001c251  ti_sysbios_family_arm_cc26xx_Timer_getPeriod__E                           
1001c255  ti_sysbios_family_arm_cc26xx_Timer_setPeriod__E                           
1001c259  ti_sysbios_family_arm_m3_Hwi_delete                                       
1001c25d  ti_sysbios_family_arm_m3_Hwi_destruct                                     
1001c261  ti_sysbios_family_arm_m3_TaskSupport_Module__startupDone__S               
1001c261  ti_sysbios_knl_Task_SupportProxy_Module__startupDone__S__mangled__        
1001c265  ti_sysbios_gates_GateHwi_query__E                                         
1001c265  xdc_runtime_Main_Module_GateProxy_query__E                                
1001c265  xdc_runtime_System_Module_GateProxy_query__E                              
1001c265  xdc_runtime_System_Module_GateProxy_query__E__mangled__                   
1001c269  ti_sysbios_gates_GateMutex_delete                                         
1001c26d  ti_sysbios_gates_GateMutex_destruct                                       
1001c271  ti_sysbios_BIOS_RtsGateProxy_query__E                                     
1001c271  ti_sysbios_BIOS_RtsGateProxy_query__E__mangled__                          
1001c271  ti_sysbios_gates_GateMutex_query__E                                       
1001c271  ti_sysbios_heaps_HeapMem_Module_GateProxy_query__E                        
1001c271  ti_sysbios_heaps_HeapMem_Module_GateProxy_query__E__mangled__             
1001c275  ti_sysbios_hal_Hwi_HwiProxy_Module__startupDone__S                        
1001c279  ti_sysbios_hal_Hwi_HwiProxy_delete                                        
1001c27d  ti_sysbios_hal_Hwi_HwiProxy_disableInterrupt__E                           
1001c27d  ti_sysbios_hal_Hwi_disableInterrupt__E                                    
1001c27d  ti_sysbios_hal_Hwi_disableInterrupt__E                                    
1001c281  ti_sysbios_hal_Hwi_HwiProxy_enableInterrupt__E                            
1001c281  ti_sysbios_hal_Hwi_enableInterrupt__E                                     
1001c281  ti_sysbios_hal_Hwi_enableInterrupt__E                                     
1001c285  ti_sysbios_hal_Hwi_HwiProxy_getStackInfo__E                               
1001c285  ti_sysbios_hal_Hwi_getStackInfo__E                                        
1001c285  ti_sysbios_hal_Hwi_getStackInfo__E                                        
1001c289  ti_sysbios_hal_Hwi_HwiProxy_startup__E                                    
1001c289  ti_sysbios_hal_Hwi_startup__E                                             
1001c289  ti_sysbios_hal_Hwi_startup__E                                             
1001c28d  ti_sysbios_hal_Hwi_HwiProxy_switchFromBootStack__E                        
1001c291  ti_sysbios_hal_Hwi_delete                                                 
1001c295  ti_sysbios_hal_Hwi_switchFromBootStack__E                                 
1001c295  ti_sysbios_hal_Hwi_switchFromBootStack__E                                 
1001c299  ti_sysbios_heaps_HeapMem_Module_GateProxy_enter__E                        
1001c29d  ti_sysbios_heaps_HeapMem_Module_GateProxy_leave__E                        
1001c2a1  ti_sysbios_heaps_HeapMem_isBlocking__E                                    
1001c2a5  ti_sysbios_knl_Clock_TimerProxy_Module__startupDone__S                    
1001c2a9  ti_sysbios_knl_Clock_TimerProxy_getExpiredTicks__E                        
1001c2ad  ti_sysbios_knl_Clock_TimerProxy_getPeriod__E                              
1001c2b1  ti_sysbios_knl_Clock_delete                                               
1001c2b5  ti_sysbios_knl_Clock_destruct                                             
1001c2b9  ti_sysbios_knl_Clock_removeI__E                                           
1001c2bd  ti_sysbios_knl_Clock_setTimeout__E                                        
1001c2c1  ti_sysbios_knl_Mailbox_delete                                             
1001c2c5  ti_sysbios_knl_Mailbox_destruct                                           
1001c2c9  ti_sysbios_knl_Queue_delete                                               
1001c2cd  ti_sysbios_knl_Queue_destruct                                             
1001c2d1  ti_sysbios_knl_Queue_head__E                                              
1001c2d5  ti_sysbios_knl_Queue_next__E                                              
1001c2d9  ti_sysbios_knl_Semaphore_delete                                           
1001c2dd  ti_sysbios_knl_Semaphore_destruct                                         
1001c2e1  ti_sysbios_knl_Swi_delete                                                 
1001c2e5  ti_sysbios_knl_Swi_destruct                                               
1001c2e9  ti_sysbios_knl_Swi_postInit__I                                            
1001c2ed  ti_sysbios_knl_Task_SupportProxy_Module__startupDone__S                   
1001c2f1  ti_sysbios_knl_Task_SupportProxy_getStackAlignment__E                     
1001c2f5  ti_sysbios_knl_Task_SupportProxy_start__E                                 
1001c2f9  ti_sysbios_knl_Task_SupportProxy_swap__E                                  
1001c2fd  ti_sysbios_knl_Task_delete                                                
1001c301  ti_sysbios_knl_Task_destruct                                              
1001c305  ti_sysbios_knl_Task_startup__E                                            
1001c309  xdc_runtime_Startup_startMods__I                                          
1001c401  xdc_runtime_Core_createObject__I                                          
1001c483  xdc_runtime_Error_policySpin__E                                           
1001c485  xdc_runtime_Memory_alloc__E                                               
1001c4f5  xdc_runtime_Core_deleteObject__I                                          
1001c555  xdc_runtime_Startup_exec__E                                               
1001c5a5  xdc_runtime_Assert_raise__I                                               
1001c5ed  xdc_runtime_Core_assignParams__I                                          
1001c635  xdc_runtime_Core_constructObject__I                                       
1001c67d  xdc_runtime_System_atexit__E                                              
1001c6b5  xdc_runtime_System_processAtExit__E                                       
1001c6e9  xdc_runtime_Core_assignLabel__I                                           
1001c719  xdc_runtime_Text_cordText__E                                              
1001c745  xdc_runtime_System_abort__E                                               
1001c765  xdc_runtime_Error_raiseX__E                                               
1001c781  xdc_runtime_Memory_valloc__E                                              
1001c79d  xdc_runtime_Core_destructObject__I                                        
1001c7b5  xdc_runtime_Error_check__E                                                
1001c7cd  xdc_runtime_System_exit__E                                                
1001c7e5  xdc_runtime_Text_ropeText__E                                              
1001c7fd  xdc_runtime_Memory_free__E                                                
1001c80d  xdc_runtime_SysCallback_abort__E                                          
1001c80d  xdc_runtime_System_SupportProxy_abort__E                                  
1001c81d  xdc_runtime_SysCallback_exit__E                                           
1001c81d  xdc_runtime_System_SupportProxy_exit__E                                   
1001c82d  xdc_runtime_Timestamp_SupportProxy_get32__E                               
1001c82d  xdc_runtime_Timestamp_get32__E                                            
1001c82d  xdc_runtime_Timestamp_get32__E                                            
1001c849  xdc_runtime_Memory_calloc__E                                              
1001c855  xdc_runtime_Memory_getMaxDefaultTypeAlign__E                              
1001c875  xdc_runtime_Gate_leaveSystem__E                                           
1001c87b  xdc_runtime_System_Module_startup__E                                      
1001c881  xdc_runtime_Gate_enterSystem__E                                           
1001c885  xdc_runtime_Memory_HeapProxy_alloc__E                                     
1001c889  xdc_runtime_Memory_HeapProxy_free__E                                      
1001c88d  xdc_runtime_System_Module_GateProxy_enter__E                              
1001c891  xdc_runtime_System_Module_GateProxy_leave__E                              
1001c895  xdc_runtime_System_abortSpin__E                                           
1001c897  xdc_runtime_System_exitSpin__E                                            
1001c899  ti_sysbios_family_arm_m3_Hwi_dispatch__I                                  
1001c969  ti_sysbios_family_arm_m3_TaskSupport_buildTaskStack                       
1001c9b5  ti_sysbios_family_arm_m3_Hwi_initStacks__E                                
1001c9fd  ti_sysbios_family_arm_m3_Hwi_excHandlerAsm__I                             
1001ca1d  ti_sysbios_family_xxx_Hwi_switchAndRunFunc                                
1001ca3b  ti_sysbios_family_arm_m3_Hwi_pendSV__I                                    
1001ca53  ti_sysbios_family_arm_m3_Hwi_return                                       
1001ca55  ti_sysbios_family_arm_m3_TaskSupport_glue                                 
1001ca65  ti_sysbios_family_arm_m3_TaskSupport_swap__E                              
1001ca65  ti_sysbios_knl_Task_SupportProxy_swap__E__mangled__                       
1001ca6d  ti_sysbios_knl_Task_swapReturn                                            
1001ca97  ti_sysbios_rom_cortexm_cc13xx_CC13xx_getRevision__E                       
20000000  ti_sysbios_family_arm_m3_Hwi_ramVectors                                   
20000100  ti_sysbios_knl_Task_Module__state__V                                      
20000144  ti_sysbios_family_arm_m3_Hwi_Module__state__V                             
20000178  ti_sysbios_knl_Clock_Module__state__V                                     
200001a4  ti_sysbios_BIOS_Module__state__V                                          
200001c8  ti_sysbios_knl_Swi_Module__state__V                                       
200001e4  ti_sysbios_family_arm_cc26xx_Timer_Module__state__V                       
200001ec  ti_sysbios_family_arm_cc26xx_TimestampProvider_Module__state__V           
200001f0  xdc_runtime_Startup_Module__state__V                                      
200001f8  xdc_runtime_System_Module__state__V                                       
20000200  xdc_runtime_Memory_Module__state__V                                       
200014b0  ti_sysbios_knl_Task_Instance_State_0_stack__A                             
200016b0  spiCC26XXDMAObjects                                                       
20001868  uartCC26XXObjects                                                         
20001b28  ti_sysbios_family_arm_m3_Hwi_dispatchTable                                
20001ec8  displaySharpObject                                                        
20001f34  Room                                                                      
20001f90  nodeRadioTask                                                             
20001fe0  nodeTask                                                                  
20002030  urAdvCmd                                                                  
20002214  cBcastDuty                                                                
20002238  fastReportTimeoutClock                                                    
2000225c  uartCC26XXRingBuffer                                                      
2000227c  udmaObjects                                                               
2000230c  radioAccessSem                                                            
20002328  radioResultSem                                                            
200023b8  nodeEvent                                                                 
200023cc  radioOperationEvent                                                       
20002438  displayUartObject                                                         
20002444  PowerCC26XX_taskKey                                                       
20002448  PowerCC26XX_swiKey                                                        
2000246c  propAdvFrame                                                              
20002474  tlmAdvFrame                                                               
2000247c  ubBDAddr                                                                  
20002484  uidAdvFrame                                                               
2000248c  urlAdvFrame                                                               
20002494  ClockP_tickPeriod                                                         
20002498  blePinHandle                                                              
200024a2  driverlib_release_0_49471                                                 
200024a8  __primary_heap_start__                                                    
200034a8  __primary_heap_end__                                                      
200034a8  pinUpperBound                                                             
200034ac  pinLowerBound                                                             
20003540  pinHandleTable                                                            
200035bc  PowerCC26XX_module                                                        
200036d0  pOverrides_sl_lr                                                          
20003738  pOverrides_hsm                                                            
20003798  pOverrides_lrm                                                            
200037f4  pOverrides_ook                                                            
200038a8  pOverrides_fsk                                                            
20003900  ubRfRegOverride                                                           
20003954  ti_sysbios_knl_Task_Object__table__V                                      
200039a0  ti_sysbios_family_arm_cc26xx_Timer_Object__table__V                       
200039e8  RF_pProp_fsk                                                              
200039ec  RF_pProp_lrm                                                              
200039f0  RF_pProp_ook                                                              
200039f4  RF_pProp_hsm                                                              
200039f8  RF_pProp_sl_lr                                                            
200039fc  RF_pProp_2_4G_fsk                                                         
20003a00  RF_pCmdPropRadioDivSetup_fsk                                              
20003a04  RF_pCmdPropRadioDivSetup_lrm                                              
20003a08  RF_pCmdPropRadioDivSetup_ook                                              
20003a0c  RF_pCmdRadioSetup_hsm                                                     
20003a10  RF_pCmdPropRadioDivSetup_sl_lr                                            
20003a14  RF_pCmdPropRadioSetup_2_4G_fsk                                            
20003a18  RF_pCmdTxHS                                                               
20003a1c  RF_pCmdRxHS                                                               
20003a20  RF_pCmdFs_preDef                                                          
20003a24  RF_pCmdPropTx_preDef                                                      
20003a28  RF_pCmdPropRxAdv_preDef                                                   
20003a64  ti_sysbios_gates_GateMutex_Object__table__V                               
20003a9c  RF_cmdPropRxAdv_preDef                                                    
20003acc  ti_sysbios_knl_Swi_Module_State_0_readyQ__A                               
20003afc  ti_sysbios_knl_Swi_Object__table__V                                       
20003b2c  ti_sysbios_knl_Task_Module_State_0_readyQ__A                              
20003b5c  RF_cmdPropRadioDivSetup                                                   
20003b84  RF_cmdPropRadioDivSetup_fsk                                               
20003bac  RF_cmdPropRadioDivSetup_lrm                                               
20003bd4  RF_cmdPropRadioDivSetup_ook                                               
20003bfc  RF_cmdPropRadioDivSetup_sl_lr                                             
20003c24  urSetup                                                                   
20003c4c  ubParams                                                                  
20003c74  RF_cmdRxHS                                                                
20003cb8  ti_sysbios_knl_Clock_Object__table__V                                     
20003cd8  urAdvParams                                                               
20003cf8  xdc_runtime_Error_IgnoreBlock                                             
20003d18  tlmAdvData                                                                
20003d37  uidAdvData                                                                
20003d56  urlAdvData                                                                
20003d76  ti_sysbios_family_arm_m3_Hwi_Module_State_0_excActive__A                  
20003d94  RF_cmdFs                                                                  
20003dac  RF_cmdFs_preDef                                                           
20003dc4  RF_cmdPropTx                                                              
20003ddc  RF_cmdPropTx_preDef                                                       
20003df4  RF_cmdRadioSetup_hsm                                                      
20003e24  shapeovr                                                                  
20003e3c  ti_sysbios_family_arm_m3_Hwi_Object__table__V                             
20003e54  ti_sysbios_heaps_HeapMem_Object__table__V                                 
20003e6c  RF_cmdTxHS                                                                
20003e94  defaultUrl                                                                
20003ea8  RF_prop                                                                   
20003eb8  RF_prop_fsk                                                               
20003ec8  RF_prop_hsm                                                               
20003ed8  RF_prop_lrm                                                               
20003ee8  RF_prop_ook                                                               
20003ef8  RF_prop_sl_lr                                                             
20003f08  blePinTable                                                               
20003f38  ulState                                                                   
20003f60  buttonPinTable                                                            
20003f6c  rfTimeCrit                                                                
20003f70  ubleAntSwitchSel                                                          
20003f7c  hcBcastDuty                                                               
20003f87  n                                                                         
20003f88  RoomActiveAddress                                                         
20003f89  RoomFilter                                                                
20003f8a  DeviceFilter                                                              
20003f8b  SpecificRoomFilter                                                        
20003f8c  SensorFilter                                                              
20003f8d  VentFilter                                                                
20003fa4  _lock                                                                     
20003fa8  _unlock                                                                   
20003fac  pinTable                                                                  
20003fb4  ti_sysbios_family_arm_m3_Hwi_Module__root__V                              
20003fbc  ti_sysbios_gates_GateHwi_Module__root__V                                  
20003fc4  ti_sysbios_gates_GateMutex_Module__root__V                                
20003fcc  ti_sysbios_hal_Hwi_Module__root__V                                        
20003fd4  ti_sysbios_heaps_HeapMem_Module__root__V                                  
20003fdc  ti_sysbios_knl_Clock_Module__root__V                                      
20003fe4  ti_sysbios_knl_Event_Module__root__V                                      
20003fec  ti_sysbios_knl_Mailbox_Module__root__V                                    
20003ff4  ti_sysbios_knl_Queue_Module__root__V                                      
20003ffc  ti_sysbios_knl_Semaphore_Module__root__V                                  
20004004  ti_sysbios_knl_Swi_Module__root__V                                        
2000400c  ti_sysbios_knl_Task_Module__root__V                                       
20004014  xdc_runtime_System_Module_State_0_atexitHandlers__A                       
2000401c  urHandle                                                                  
20004020  urAdvHandle                                                               
20004028  main_func_sp                                                              
2000402c  ti_sysbios_family_arm_m3_Hwi_Module_State_0_excContext__A                 
20004030  ti_sysbios_family_arm_m3_Hwi_Module_State_0_excStack__A                   
20004034  ti_sysbios_knl_Task_Module_State_0_idleTask__A                            
20004c00  __stack                                                                   
20005000  __STACK_END                                                               
e000e000  ti_sysbios_family_arm_m3_Hwi_nvic                                         
ffffffff  __TI_pprof_out_hndl                                                       
ffffffff  __TI_prof_data_size                                                       
ffffffff  __TI_prof_data_start                                                      
ffffffff  __binit__                                                                 
ffffffff  __c_args__                                                                
ffffffff  binit                                                                     
UNDEFED   SHT$$INIT_ARRAY$$Base                                                     
UNDEFED   SHT$$INIT_ARRAY$$Limit                                                    

[1057 symbols]
